
dhry.riscv:     file format elf64-littleriscv


Disassembly of section .text.init:

0000000080000000 <_start>:
    80000000:	00000093          	li	ra,0
    80000004:	00000113          	li	sp,0
    80000008:	00000193          	li	gp,0
    8000000c:	00000213          	li	tp,0
    80000010:	00000293          	li	t0,0
    80000014:	00000313          	li	t1,0
    80000018:	00000393          	li	t2,0
    8000001c:	00000413          	li	s0,0
    80000020:	00000493          	li	s1,0
    80000024:	00000513          	li	a0,0
    80000028:	00000593          	li	a1,0
    8000002c:	00000613          	li	a2,0
    80000030:	00000693          	li	a3,0
    80000034:	00000713          	li	a4,0
    80000038:	00000793          	li	a5,0
    8000003c:	00000813          	li	a6,0
    80000040:	00000893          	li	a7,0
    80000044:	00000913          	li	s2,0
    80000048:	00000993          	li	s3,0
    8000004c:	00000a13          	li	s4,0
    80000050:	00000a93          	li	s5,0
    80000054:	00000b13          	li	s6,0
    80000058:	00000b93          	li	s7,0
    8000005c:	00000c13          	li	s8,0
    80000060:	00000c93          	li	s9,0
    80000064:	00000d13          	li	s10,0
    80000068:	00000d93          	li	s11,0
    8000006c:	00000e13          	li	t3,0
    80000070:	00000e93          	li	t4,0
    80000074:	00000f13          	li	t5,0
    80000078:	00000f93          	li	t6,0
    8000007c:	0001e2b7          	lui	t0,0x1e
    80000080:	3002a073          	csrs	mstatus,t0
    80000084:	00100293          	li	t0,1
    80000088:	01f29293          	slli	t0,t0,0x1f
    8000008c:	0002da63          	bgez	t0,800000a0 <_start+0xa0>
    80000090:	00100513          	li	a0,1
    80000094:	00001297          	auipc	t0,0x1
    80000098:	f6a2a623          	sw	a0,-148(t0) # 80001000 <tohost>
    8000009c:	ff5ff06f          	j	80000090 <_start+0x90>
    800000a0:	00000297          	auipc	t0,0x0
    800000a4:	09028293          	addi	t0,t0,144 # 80000130 <_start+0x130>
    800000a8:	30529073          	csrw	mtvec,t0
    800000ac:	00301073          	fssr	zero
    800000b0:	f0000053          	fmv.s.x	ft0,zero
    800000b4:	f00000d3          	fmv.s.x	ft1,zero
    800000b8:	f0000153          	fmv.s.x	ft2,zero
    800000bc:	f00001d3          	fmv.s.x	ft3,zero
    800000c0:	f0000253          	fmv.s.x	ft4,zero
    800000c4:	f00002d3          	fmv.s.x	ft5,zero
    800000c8:	f0000353          	fmv.s.x	ft6,zero
    800000cc:	f00003d3          	fmv.s.x	ft7,zero
    800000d0:	f0000453          	fmv.s.x	fs0,zero
    800000d4:	f00004d3          	fmv.s.x	fs1,zero
    800000d8:	f0000553          	fmv.s.x	fa0,zero
    800000dc:	f00005d3          	fmv.s.x	fa1,zero
    800000e0:	f0000653          	fmv.s.x	fa2,zero
    800000e4:	f00006d3          	fmv.s.x	fa3,zero
    800000e8:	f0000753          	fmv.s.x	fa4,zero
    800000ec:	f00007d3          	fmv.s.x	fa5,zero
    800000f0:	f0000853          	fmv.s.x	fa6,zero
    800000f4:	f00008d3          	fmv.s.x	fa7,zero
    800000f8:	f0000953          	fmv.s.x	fs2,zero
    800000fc:	f00009d3          	fmv.s.x	fs3,zero
    80000100:	f0000a53          	fmv.s.x	fs4,zero
    80000104:	f0000ad3          	fmv.s.x	fs5,zero
    80000108:	f0000b53          	fmv.s.x	fs6,zero
    8000010c:	f0000bd3          	fmv.s.x	fs7,zero
    80000110:	f0000c53          	fmv.s.x	fs8,zero
    80000114:	f0000cd3          	fmv.s.x	fs9,zero
    80000118:	f0000d53          	fmv.s.x	fs10,zero
    8000011c:	f0000dd3          	fmv.s.x	fs11,zero
    80000120:	f0000e53          	fmv.s.x	ft8,zero
    80000124:	f0000ed3          	fmv.s.x	ft9,zero
    80000128:	f0000f53          	fmv.s.x	ft10,zero
    8000012c:	f0000fd3          	fmv.s.x	ft11,zero
    80000130:	00000297          	auipc	t0,0x0
    80000134:	04428293          	addi	t0,t0,68 # 80000174 <trap_entry>
    80000138:	30529073          	csrw	mtvec,t0
    8000013c:	00003197          	auipc	gp,0x3
    80000140:	b7418193          	addi	gp,gp,-1164 # 80002cb0 <__global_pointer$>
    80000144:	00005217          	auipc	tp,0x5
    80000148:	c7b20213          	addi	tp,tp,-901 # 80004dbf <_end+0x3f>
    8000014c:	fc027213          	andi	tp,tp,-64
    80000150:	f1402573          	csrr	a0,mhartid
    80000154:	00100593          	li	a1,1
    80000158:	00b57063          	bleu	a1,a0,80000158 <_start+0x158>
    8000015c:	01151613          	slli	a2,a0,0x11
    80000160:	00c20233          	add	tp,tp,a2
    80000164:	00150113          	addi	sp,a0,1
    80000168:	01111113          	slli	sp,sp,0x11
    8000016c:	00410133          	add	sp,sp,tp
    80000170:	2290106f          	j	80001b98 <_init>

0000000080000174 <trap_entry>:
    80000174:	ef010113          	addi	sp,sp,-272
    80000178:	00113423          	sd	ra,8(sp)
    8000017c:	00213823          	sd	sp,16(sp)
    80000180:	00313c23          	sd	gp,24(sp)
    80000184:	02413023          	sd	tp,32(sp)
    80000188:	02513423          	sd	t0,40(sp)
    8000018c:	02613823          	sd	t1,48(sp)
    80000190:	02713c23          	sd	t2,56(sp)
    80000194:	04813023          	sd	s0,64(sp)
    80000198:	04913423          	sd	s1,72(sp)
    8000019c:	04a13823          	sd	a0,80(sp)
    800001a0:	04b13c23          	sd	a1,88(sp)
    800001a4:	06c13023          	sd	a2,96(sp)
    800001a8:	06d13423          	sd	a3,104(sp)
    800001ac:	06e13823          	sd	a4,112(sp)
    800001b0:	06f13c23          	sd	a5,120(sp)
    800001b4:	09013023          	sd	a6,128(sp)
    800001b8:	09113423          	sd	a7,136(sp)
    800001bc:	09213823          	sd	s2,144(sp)
    800001c0:	09313c23          	sd	s3,152(sp)
    800001c4:	0b413023          	sd	s4,160(sp)
    800001c8:	0b513423          	sd	s5,168(sp)
    800001cc:	0b613823          	sd	s6,176(sp)
    800001d0:	0b713c23          	sd	s7,184(sp)
    800001d4:	0d813023          	sd	s8,192(sp)
    800001d8:	0d913423          	sd	s9,200(sp)
    800001dc:	0da13823          	sd	s10,208(sp)
    800001e0:	0db13c23          	sd	s11,216(sp)
    800001e4:	0fc13023          	sd	t3,224(sp)
    800001e8:	0fd13423          	sd	t4,232(sp)
    800001ec:	0fe13823          	sd	t5,240(sp)
    800001f0:	0ff13c23          	sd	t6,248(sp)
    800001f4:	34202573          	csrr	a0,mcause
    800001f8:	341025f3          	csrr	a1,mepc
    800001fc:	00010613          	mv	a2,sp
    80000200:	704010ef          	jal	ra,80001904 <handle_trap>
    80000204:	34151073          	csrw	mepc,a0
    80000208:	000022b7          	lui	t0,0x2
    8000020c:	8002829b          	addiw	t0,t0,-2048
    80000210:	3002a073          	csrs	mstatus,t0
    80000214:	00813083          	ld	ra,8(sp)
    80000218:	01013103          	ld	sp,16(sp)
    8000021c:	01813183          	ld	gp,24(sp)
    80000220:	02013203          	ld	tp,32(sp)
    80000224:	02813283          	ld	t0,40(sp)
    80000228:	03013303          	ld	t1,48(sp)
    8000022c:	03813383          	ld	t2,56(sp)
    80000230:	04013403          	ld	s0,64(sp)
    80000234:	04813483          	ld	s1,72(sp)
    80000238:	05013503          	ld	a0,80(sp)
    8000023c:	05813583          	ld	a1,88(sp)
    80000240:	06013603          	ld	a2,96(sp)
    80000244:	06813683          	ld	a3,104(sp)
    80000248:	07013703          	ld	a4,112(sp)
    8000024c:	07813783          	ld	a5,120(sp)
    80000250:	08013803          	ld	a6,128(sp)
    80000254:	08813883          	ld	a7,136(sp)
    80000258:	09013903          	ld	s2,144(sp)
    8000025c:	09813983          	ld	s3,152(sp)
    80000260:	0a013a03          	ld	s4,160(sp)
    80000264:	0a813a83          	ld	s5,168(sp)
    80000268:	0b013b03          	ld	s6,176(sp)
    8000026c:	0b813b83          	ld	s7,184(sp)
    80000270:	0c013c03          	ld	s8,192(sp)
    80000274:	0c813c83          	ld	s9,200(sp)
    80000278:	0d013d03          	ld	s10,208(sp)
    8000027c:	0d813d83          	ld	s11,216(sp)
    80000280:	0e013e03          	ld	t3,224(sp)
    80000284:	0e813e83          	ld	t4,232(sp)
    80000288:	0f013f03          	ld	t5,240(sp)
    8000028c:	0f813f83          	ld	t6,248(sp)
    80000290:	11010113          	addi	sp,sp,272
    80000294:	30200073          	mret
	...

Disassembly of section .tohost:

0000000080001000 <tohost>:
	...

0000000080001040 <fromhost>:
	...

Disassembly of section .text:

0000000080001048 <Proc_6>:
    80001048:	00200793          	li	a5,2
    8000104c:	04f50263          	beq	a0,a5,80001090 <Proc_6+0x48>
    80001050:	00300713          	li	a4,3
    80001054:	00e5a023          	sw	a4,0(a1)
    80001058:	00100293          	li	t0,1
    8000105c:	00550c63          	beq	a0,t0,80001074 <Proc_6+0x2c>
    80001060:	02050463          	beqz	a0,80001088 <Proc_6+0x40>
    80001064:	00400313          	li	t1,4
    80001068:	00651463          	bne	a0,t1,80001070 <Proc_6+0x28>
    8000106c:	00f5a023          	sw	a5,0(a1)
    80001070:	00008067          	ret
    80001074:	00001397          	auipc	t2,0x1
    80001078:	47038393          	addi	t2,t2,1136 # 800024e4 <Int_Glob>
    8000107c:	0003a503          	lw	a0,0(t2)
    80001080:	06400613          	li	a2,100
    80001084:	fea656e3          	ble	a0,a2,80001070 <Proc_6+0x28>
    80001088:	0005a023          	sw	zero,0(a1)
    8000108c:	00008067          	ret
    80001090:	00100693          	li	a3,1
    80001094:	00d5a023          	sw	a3,0(a1)
    80001098:	00008067          	ret

000000008000109c <Proc_7>:
    8000109c:	0025051b          	addiw	a0,a0,2
    800010a0:	00b505bb          	addw	a1,a0,a1
    800010a4:	00b62023          	sw	a1,0(a2)
    800010a8:	00008067          	ret

00000000800010ac <Proc_8>:
    800010ac:	0056079b          	addiw	a5,a2,5
    800010b0:	0c800713          	li	a4,200
    800010b4:	02e782b3          	mul	t0,a5,a4
    800010b8:	00261613          	slli	a2,a2,0x2
    800010bc:	00279313          	slli	t1,a5,0x2
    800010c0:	00650533          	add	a0,a0,t1
    800010c4:	00d52023          	sw	a3,0(a0)
    800010c8:	06f52c23          	sw	a5,120(a0)
    800010cc:	00d52223          	sw	a3,4(a0)
    800010d0:	00001fb7          	lui	t6,0x1
    800010d4:	00500813          	li	a6,5
    800010d8:	00c283b3          	add	t2,t0,a2
    800010dc:	007588b3          	add	a7,a1,t2
    800010e0:	0108a683          	lw	a3,16(a7)
    800010e4:	00f8aa23          	sw	a5,20(a7)
    800010e8:	00f8ac23          	sw	a5,24(a7)
    800010ec:	00168e1b          	addiw	t3,a3,1
    800010f0:	01c8a823          	sw	t3,16(a7)
    800010f4:	00052e83          	lw	t4,0(a0)
    800010f8:	005585b3          	add	a1,a1,t0
    800010fc:	00c58f33          	add	t5,a1,a2
    80001100:	01ef87b3          	add	a5,t6,t5
    80001104:	fbd7aa23          	sw	t4,-76(a5)
    80001108:	00001717          	auipc	a4,0x1
    8000110c:	3d072e23          	sw	a6,988(a4) # 800024e4 <Int_Glob>
    80001110:	00008067          	ret

0000000080001114 <Func_1>:
    80001114:	0ff57513          	andi	a0,a0,255
    80001118:	0ff5f593          	andi	a1,a1,255
    8000111c:	00b50663          	beq	a0,a1,80001128 <Func_1+0x14>
    80001120:	00000513          	li	a0,0
    80001124:	00008067          	ret
    80001128:	00001797          	auipc	a5,0x1
    8000112c:	3aa78aa3          	sb	a0,949(a5) # 800024dd <Ch_1_Glob>
    80001130:	00100513          	li	a0,1
    80001134:	00008067          	ret

0000000080001138 <Func_2>:
    80001138:	ff010113          	addi	sp,sp,-16
    8000113c:	00113423          	sd	ra,8(sp)
    80001140:	00254783          	lbu	a5,2(a0)
    80001144:	0035c683          	lbu	a3,3(a1)
    80001148:	00001617          	auipc	a2,0x1
    8000114c:	39564603          	lbu	a2,917(a2) # 800024dd <Ch_1_Glob>
    80001150:	00000713          	li	a4,0
    80001154:	02d78663          	beq	a5,a3,80001180 <Func_2+0x48>
    80001158:	04071263          	bnez	a4,8000119c <Func_2+0x64>
    8000115c:	3a9000ef          	jal	ra,80001d04 <strcmp>
    80001160:	02a05663          	blez	a0,8000118c <Func_2+0x54>
    80001164:	00a00093          	li	ra,10
    80001168:	00001717          	auipc	a4,0x1
    8000116c:	36172e23          	sw	ra,892(a4) # 800024e4 <Int_Glob>
    80001170:	00813083          	ld	ra,8(sp)
    80001174:	00100513          	li	a0,1
    80001178:	01010113          	addi	sp,sp,16
    8000117c:	00008067          	ret
    80001180:	00100713          	li	a4,1
    80001184:	00078613          	mv	a2,a5
    80001188:	fcdff06f          	j	80001154 <Func_2+0x1c>
    8000118c:	00813083          	ld	ra,8(sp)
    80001190:	00000513          	li	a0,0
    80001194:	01010113          	addi	sp,sp,16
    80001198:	00008067          	ret
    8000119c:	00001797          	auipc	a5,0x1
    800011a0:	34c780a3          	sb	a2,833(a5) # 800024dd <Ch_1_Glob>
    800011a4:	fb9ff06f          	j	8000115c <Func_2+0x24>

00000000800011a8 <Func_3>:
    800011a8:	ffe50513          	addi	a0,a0,-2
    800011ac:	00153513          	seqz	a0,a0
    800011b0:	00008067          	ret
    800011b4:	0000                	unimp
	...

00000000800011b8 <Proc_2>:
    800011b8:	00001717          	auipc	a4,0x1
    800011bc:	32574703          	lbu	a4,805(a4) # 800024dd <Ch_1_Glob>
    800011c0:	04100793          	li	a5,65
    800011c4:	00f70463          	beq	a4,a5,800011cc <Proc_2+0x14>
    800011c8:	00008067          	ret
    800011cc:	00052283          	lw	t0,0(a0)
    800011d0:	00001317          	auipc	t1,0x1
    800011d4:	31430313          	addi	t1,t1,788 # 800024e4 <Int_Glob>
    800011d8:	00032383          	lw	t2,0(t1)
    800011dc:	0092859b          	addiw	a1,t0,9
    800011e0:	4075863b          	subw	a2,a1,t2
    800011e4:	00c52023          	sw	a2,0(a0)
    800011e8:	00008067          	ret

00000000800011ec <Proc_3>:
    800011ec:	00001797          	auipc	a5,0x1
    800011f0:	30478793          	addi	a5,a5,772 # 800024f0 <Ptr_Glob>
    800011f4:	0007b603          	ld	a2,0(a5)
    800011f8:	00060863          	beqz	a2,80001208 <Proc_3+0x1c>
    800011fc:	00063703          	ld	a4,0(a2)
    80001200:	00e53023          	sd	a4,0(a0)
    80001204:	0007b603          	ld	a2,0(a5)
    80001208:	00001297          	auipc	t0,0x1
    8000120c:	2dc28293          	addi	t0,t0,732 # 800024e4 <Int_Glob>
    80001210:	0002a583          	lw	a1,0(t0)
    80001214:	01060613          	addi	a2,a2,16
    80001218:	00a00513          	li	a0,10
    8000121c:	e81ff06f          	j	8000109c <Proc_7>

0000000080001220 <Proc_1>:
    80001220:	fe010113          	addi	sp,sp,-32
    80001224:	01213023          	sd	s2,0(sp)
    80001228:	00001917          	auipc	s2,0x1
    8000122c:	2c890913          	addi	s2,s2,712 # 800024f0 <Ptr_Glob>
    80001230:	00093783          	ld	a5,0(s2)
    80001234:	00813823          	sd	s0,16(sp)
    80001238:	00053403          	ld	s0,0(a0)
    8000123c:	0007b703          	ld	a4,0(a5)
    80001240:	00113c23          	sd	ra,24(sp)
    80001244:	00913423          	sd	s1,8(sp)
    80001248:	0107b803          	ld	a6,16(a5)
    8000124c:	0187b583          	ld	a1,24(a5)
    80001250:	0207b603          	ld	a2,32(a5)
    80001254:	0287b683          	ld	a3,40(a5)
    80001258:	0307b083          	ld	ra,48(a5)
    8000125c:	00050493          	mv	s1,a0
    80001260:	0087b503          	ld	a0,8(a5)
    80001264:	00e43023          	sd	a4,0(s0)
    80001268:	0004b283          	ld	t0,0(s1)
    8000126c:	00500313          	li	t1,5
    80001270:	01043823          	sd	a6,16(s0)
    80001274:	00a43423          	sd	a0,8(s0)
    80001278:	00b43c23          	sd	a1,24(s0)
    8000127c:	02c43023          	sd	a2,32(s0)
    80001280:	02d43423          	sd	a3,40(s0)
    80001284:	02143823          	sd	ra,48(s0)
    80001288:	0064a823          	sw	t1,16(s1)
    8000128c:	00642823          	sw	t1,16(s0)
    80001290:	00543023          	sd	t0,0(s0)
    80001294:	00040513          	mv	a0,s0
    80001298:	00000097          	auipc	ra,0x0
    8000129c:	f54080e7          	jalr	-172(ra) # 800011ec <Proc_3>
    800012a0:	00842383          	lw	t2,8(s0)
    800012a4:	04038c63          	beqz	t2,800012fc <Proc_1+0xdc>
    800012a8:	0004be03          	ld	t3,0(s1)
    800012ac:	01813083          	ld	ra,24(sp)
    800012b0:	028e3403          	ld	s0,40(t3)
    800012b4:	020e3903          	ld	s2,32(t3)
    800012b8:	000e3883          	ld	a7,0(t3)
    800012bc:	008e3e83          	ld	t4,8(t3)
    800012c0:	010e3f03          	ld	t5,16(t3)
    800012c4:	018e3f83          	ld	t6,24(t3)
    800012c8:	030e3783          	ld	a5,48(t3)
    800012cc:	0284b423          	sd	s0,40(s1)
    800012d0:	01013403          	ld	s0,16(sp)
    800012d4:	0324b023          	sd	s2,32(s1)
    800012d8:	0114b023          	sd	a7,0(s1)
    800012dc:	01d4b423          	sd	t4,8(s1)
    800012e0:	01e4b823          	sd	t5,16(s1)
    800012e4:	01f4bc23          	sd	t6,24(s1)
    800012e8:	02f4b823          	sd	a5,48(s1)
    800012ec:	00013903          	ld	s2,0(sp)
    800012f0:	00813483          	ld	s1,8(sp)
    800012f4:	02010113          	addi	sp,sp,32
    800012f8:	00008067          	ret
    800012fc:	00c4a503          	lw	a0,12(s1)
    80001300:	00600493          	li	s1,6
    80001304:	00c40593          	addi	a1,s0,12
    80001308:	00942823          	sw	s1,16(s0)
    8000130c:	d3dff0ef          	jal	ra,80001048 <Proc_6>
    80001310:	00093703          	ld	a4,0(s2)
    80001314:	01042503          	lw	a0,16(s0)
    80001318:	01040613          	addi	a2,s0,16
    8000131c:	00073803          	ld	a6,0(a4)
    80001320:	01813083          	ld	ra,24(sp)
    80001324:	00813483          	ld	s1,8(sp)
    80001328:	01043023          	sd	a6,0(s0)
    8000132c:	01013403          	ld	s0,16(sp)
    80001330:	00013903          	ld	s2,0(sp)
    80001334:	00a00593          	li	a1,10
    80001338:	02010113          	addi	sp,sp,32
    8000133c:	00000317          	auipc	t1,0x0
    80001340:	d6030067          	jr	-672(t1) # 8000109c <Proc_7>

0000000080001344 <Proc_4>:
    80001344:	00001717          	auipc	a4,0x1
    80001348:	19c70713          	addi	a4,a4,412 # 800024e0 <Bool_Glob>
    8000134c:	00072683          	lw	a3,0(a4)
    80001350:	00001797          	auipc	a5,0x1
    80001354:	18d7c783          	lbu	a5,397(a5) # 800024dd <Ch_1_Glob>
    80001358:	fbf78293          	addi	t0,a5,-65
    8000135c:	0012b313          	seqz	t1,t0
    80001360:	00d363b3          	or	t2,t1,a3
    80001364:	04200593          	li	a1,66
    80001368:	00772023          	sw	t2,0(a4)
    8000136c:	00001717          	auipc	a4,0x1
    80001370:	16b70823          	sb	a1,368(a4) # 800024dc <Ch_2_Glob>
    80001374:	00008067          	ret

0000000080001378 <Proc_5>:
    80001378:	04100793          	li	a5,65
    8000137c:	00001717          	auipc	a4,0x1
    80001380:	16f700a3          	sb	a5,353(a4) # 800024dd <Ch_1_Glob>
    80001384:	00001797          	auipc	a5,0x1
    80001388:	1407ae23          	sw	zero,348(a5) # 800024e0 <Bool_Glob>
    8000138c:	00008067          	ret
    80001390:	0000                	unimp
	...

0000000080001394 <vprintfmt>:
    80001394:	ea010113          	addi	sp,sp,-352
    80001398:	14813823          	sd	s0,336(sp)
    8000139c:	14913423          	sd	s1,328(sp)
    800013a0:	15213023          	sd	s2,320(sp)
    800013a4:	13413823          	sd	s4,304(sp)
    800013a8:	13513423          	sd	s5,296(sp)
    800013ac:	13613023          	sd	s6,288(sp)
    800013b0:	14113c23          	sd	ra,344(sp)
    800013b4:	13313c23          	sd	s3,312(sp)
    800013b8:	11713c23          	sd	s7,280(sp)
    800013bc:	11813823          	sd	s8,272(sp)
    800013c0:	11913423          	sd	s9,264(sp)
    800013c4:	00050913          	mv	s2,a0
    800013c8:	00058493          	mv	s1,a1
    800013cc:	00060413          	mv	s0,a2
    800013d0:	00068b13          	mv	s6,a3
    800013d4:	02500a13          	li	s4,37
    800013d8:	00001a97          	auipc	s5,0x1
    800013dc:	f80a8a93          	addi	s5,s5,-128 # 80002358 <main+0x580>
    800013e0:	0140006f          	j	800013f4 <vprintfmt+0x60>
    800013e4:	06050063          	beqz	a0,80001444 <vprintfmt+0xb0>
    800013e8:	00048593          	mv	a1,s1
    800013ec:	00140413          	addi	s0,s0,1
    800013f0:	000900e7          	jalr	s2
    800013f4:	00044503          	lbu	a0,0(s0)
    800013f8:	ff4516e3          	bne	a0,s4,800013e4 <vprintfmt+0x50>
    800013fc:	00144683          	lbu	a3,1(s0)
    80001400:	00140c93          	addi	s9,s0,1
    80001404:	000c8713          	mv	a4,s9
    80001408:	02000c13          	li	s8,32
    8000140c:	fff00993          	li	s3,-1
    80001410:	fff00b93          	li	s7,-1
    80001414:	00000593          	li	a1,0
    80001418:	05500613          	li	a2,85
    8000141c:	00900513          	li	a0,9
    80001420:	fdd6879b          	addiw	a5,a3,-35
    80001424:	0ff7f093          	andi	ra,a5,255
    80001428:	00170413          	addi	s0,a4,1
    8000142c:	2a166863          	bltu	a2,ra,800016dc <vprintfmt+0x348>
    80001430:	00209293          	slli	t0,ra,0x2
    80001434:	01528333          	add	t1,t0,s5
    80001438:	00032383          	lw	t2,0(t1)
    8000143c:	01538833          	add	a6,t2,s5
    80001440:	00080067          	jr	a6
    80001444:	15813083          	ld	ra,344(sp)
    80001448:	15013403          	ld	s0,336(sp)
    8000144c:	14813483          	ld	s1,328(sp)
    80001450:	14013903          	ld	s2,320(sp)
    80001454:	13813983          	ld	s3,312(sp)
    80001458:	13013a03          	ld	s4,304(sp)
    8000145c:	12813a83          	ld	s5,296(sp)
    80001460:	12013b03          	ld	s6,288(sp)
    80001464:	11813b83          	ld	s7,280(sp)
    80001468:	11013c03          	ld	s8,272(sp)
    8000146c:	10813c83          	ld	s9,264(sp)
    80001470:	16010113          	addi	sp,sp,352
    80001474:	00008067          	ret
    80001478:	00800f93          	li	t6,8
    8000147c:	00100793          	li	a5,1
    80001480:	008b0293          	addi	t0,s6,8
    80001484:	12b7d863          	ble	a1,a5,800015b4 <vprintfmt+0x220>
    80001488:	000b3303          	ld	t1,0(s6)
    8000148c:	00028b13          	mv	s6,t0
    80001490:	03f37eb3          	remu	t4,t1,t6
    80001494:	000c0c1b          	sext.w	s8,s8
    80001498:	01d12023          	sw	t4,0(sp)
    8000149c:	25f36a63          	bltu	t1,t6,800016f0 <vprintfmt+0x35c>
    800014a0:	00410393          	addi	t2,sp,4
    800014a4:	00100993          	li	s3,1
    800014a8:	0080006f          	j	800014b0 <vprintfmt+0x11c>
    800014ac:	000c8993          	mv	s3,s9
    800014b0:	03f35333          	divu	t1,t1,t6
    800014b4:	00438393          	addi	t2,t2,4
    800014b8:	00198c9b          	addiw	s9,s3,1
    800014bc:	03f37833          	remu	a6,t1,t6
    800014c0:	ff03ae23          	sw	a6,-4(t2)
    800014c4:	fff374e3          	bleu	t6,t1,800014ac <vprintfmt+0x118>
    800014c8:	017cde63          	ble	s7,s9,800014e4 <vprintfmt+0x150>
    800014cc:	000b8b9b          	sext.w	s7,s7
    800014d0:	fffb8b9b          	addiw	s7,s7,-1
    800014d4:	00048593          	mv	a1,s1
    800014d8:	000c0513          	mv	a0,s8
    800014dc:	000900e7          	jalr	s2
    800014e0:	ff7cc8e3          	blt	s9,s7,800014d0 <vprintfmt+0x13c>
    800014e4:	00299613          	slli	a2,s3,0x2
    800014e8:	10010893          	addi	a7,sp,256
    800014ec:	00c88e33          	add	t3,a7,a2
    800014f0:	f00e2e83          	lw	t4,-256(t3)
    800014f4:	fff98f1b          	addiw	t5,s3,-1
    800014f8:	002f1f93          	slli	t6,t5,0x2
    800014fc:	01f10c33          	add	s8,sp,t6
    80001500:	00900c93          	li	s9,9
    80001504:	0100006f          	j	80001514 <vprintfmt+0x180>
    80001508:	000c2e83          	lw	t4,0(s8)
    8000150c:	fff98993          	addi	s3,s3,-1
    80001510:	ffcc0c13          	addi	s8,s8,-4
    80001514:	03000793          	li	a5,48
    80001518:	01dcf463          	bleu	t4,s9,80001520 <vprintfmt+0x18c>
    8000151c:	05700793          	li	a5,87
    80001520:	00048593          	mv	a1,s1
    80001524:	01d7853b          	addw	a0,a5,t4
    80001528:	000900e7          	jalr	s2
    8000152c:	0009829b          	sext.w	t0,s3
    80001530:	fc504ce3          	bgtz	t0,80001508 <vprintfmt+0x174>
    80001534:	ec1ff06f          	j	800013f4 <vprintfmt+0x60>
    80001538:	03000513          	li	a0,48
    8000153c:	00048593          	mv	a1,s1
    80001540:	000900e7          	jalr	s2
    80001544:	00048593          	mv	a1,s1
    80001548:	07800513          	li	a0,120
    8000154c:	000900e7          	jalr	s2
    80001550:	008b0293          	addi	t0,s6,8
    80001554:	01000f93          	li	t6,16
    80001558:	f31ff06f          	j	80001488 <vprintfmt+0xf4>
    8000155c:	000b3c83          	ld	s9,0(s6)
    80001560:	008b0b13          	addi	s6,s6,8
    80001564:	200c8c63          	beqz	s9,8000177c <vprintfmt+0x3e8>
    80001568:	1b705463          	blez	s7,80001710 <vprintfmt+0x37c>
    8000156c:	02d00513          	li	a0,45
    80001570:	1eac0e63          	beq	s8,a0,8000176c <vprintfmt+0x3d8>
    80001574:	000b8e1b          	sext.w	t3,s7
    80001578:	20098e63          	beqz	s3,80001794 <vprintfmt+0x400>
    8000157c:	000cc603          	lbu	a2,0(s9)
    80001580:	20060a63          	beqz	a2,80001794 <vprintfmt+0x400>
    80001584:	001c8f13          	addi	t5,s9,1
    80001588:	013c8eb3          	add	t4,s9,s3
    8000158c:	25ee8463          	beq	t4,t5,800017d4 <vprintfmt+0x440>
    80001590:	001f0713          	addi	a4,t5,1
    80001594:	fff74683          	lbu	a3,-1(a4)
    80001598:	16068663          	beqz	a3,80001704 <vprintfmt+0x370>
    8000159c:	00070f13          	mv	t5,a4
    800015a0:	fedff06f          	j	8000158c <vprintfmt+0x1f8>
    800015a4:	00100793          	li	a5,1
    800015a8:	00a00f93          	li	t6,10
    800015ac:	008b0293          	addi	t0,s6,8
    800015b0:	ecb7cce3          	blt	a5,a1,80001488 <vprintfmt+0xf4>
    800015b4:	ec059ae3          	bnez	a1,80001488 <vprintfmt+0xf4>
    800015b8:	000b6303          	lwu	t1,0(s6)
    800015bc:	00028b13          	mv	s6,t0
    800015c0:	ed1ff06f          	j	80001490 <vprintfmt+0xfc>
    800015c4:	00174683          	lbu	a3,1(a4)
    800015c8:	00040713          	mv	a4,s0
    800015cc:	e55ff06f          	j	80001420 <vprintfmt+0x8c>
    800015d0:	00048593          	mv	a1,s1
    800015d4:	02500513          	li	a0,37
    800015d8:	000900e7          	jalr	s2
    800015dc:	e19ff06f          	j	800013f4 <vprintfmt+0x60>
    800015e0:	01000f93          	li	t6,16
    800015e4:	e99ff06f          	j	8000147c <vprintfmt+0xe8>
    800015e8:	000b2983          	lw	s3,0(s6)
    800015ec:	00174683          	lbu	a3,1(a4)
    800015f0:	008b0b13          	addi	s6,s6,8
    800015f4:	00040713          	mv	a4,s0
    800015f8:	e20bd4e3          	bgez	s7,80001420 <vprintfmt+0x8c>
    800015fc:	00098b93          	mv	s7,s3
    80001600:	fff00993          	li	s3,-1
    80001604:	e1dff06f          	j	80001420 <vprintfmt+0x8c>
    80001608:	00174683          	lbu	a3,1(a4)
    8000160c:	02d00c13          	li	s8,45
    80001610:	00040713          	mv	a4,s0
    80001614:	e0dff06f          	j	80001420 <vprintfmt+0x8c>
    80001618:	000b8e93          	mv	t4,s7
    8000161c:	000bd463          	bgez	s7,80001624 <vprintfmt+0x290>
    80001620:	00000e93          	li	t4,0
    80001624:	00174683          	lbu	a3,1(a4)
    80001628:	000e8b9b          	sext.w	s7,t4
    8000162c:	00040713          	mv	a4,s0
    80001630:	df1ff06f          	j	80001420 <vprintfmt+0x8c>
    80001634:	00174683          	lbu	a3,1(a4)
    80001638:	03000c13          	li	s8,48
    8000163c:	00040713          	mv	a4,s0
    80001640:	de1ff06f          	j	80001420 <vprintfmt+0x8c>
    80001644:	fd06899b          	addiw	s3,a3,-48
    80001648:	00174683          	lbu	a3,1(a4)
    8000164c:	00040713          	mv	a4,s0
    80001650:	fd06809b          	addiw	ra,a3,-48
    80001654:	00068e1b          	sext.w	t3,a3
    80001658:	fa1560e3          	bltu	a0,ra,800015f8 <vprintfmt+0x264>
    8000165c:	00170713          	addi	a4,a4,1
    80001660:	0029941b          	slliw	s0,s3,0x2
    80001664:	00074683          	lbu	a3,0(a4)
    80001668:	0134033b          	addw	t1,s0,s3
    8000166c:	0013139b          	slliw	t2,t1,0x1
    80001670:	01c3883b          	addw	a6,t2,t3
    80001674:	fd06889b          	addiw	a7,a3,-48
    80001678:	fd08099b          	addiw	s3,a6,-48
    8000167c:	00068e1b          	sext.w	t3,a3
    80001680:	fd157ee3          	bleu	a7,a0,8000165c <vprintfmt+0x2c8>
    80001684:	f75ff06f          	j	800015f8 <vprintfmt+0x264>
    80001688:	000b2503          	lw	a0,0(s6)
    8000168c:	00048593          	mv	a1,s1
    80001690:	008b0b13          	addi	s6,s6,8
    80001694:	000900e7          	jalr	s2
    80001698:	d5dff06f          	j	800013f4 <vprintfmt+0x60>
    8000169c:	00100093          	li	ra,1
    800016a0:	008b0c93          	addi	s9,s6,8
    800016a4:	0ab0de63          	ble	a1,ra,80001760 <vprintfmt+0x3cc>
    800016a8:	000b3983          	ld	s3,0(s6)
    800016ac:	1009d263          	bgez	s3,800017b0 <vprintfmt+0x41c>
    800016b0:	00048593          	mv	a1,s1
    800016b4:	02d00513          	li	a0,45
    800016b8:	000900e7          	jalr	s2
    800016bc:	000c8b13          	mv	s6,s9
    800016c0:	41300333          	neg	t1,s3
    800016c4:	00a00f93          	li	t6,10
    800016c8:	dc9ff06f          	j	80001490 <vprintfmt+0xfc>
    800016cc:	00174683          	lbu	a3,1(a4)
    800016d0:	0015859b          	addiw	a1,a1,1
    800016d4:	00040713          	mv	a4,s0
    800016d8:	d49ff06f          	j	80001420 <vprintfmt+0x8c>
    800016dc:	00048593          	mv	a1,s1
    800016e0:	02500513          	li	a0,37
    800016e4:	000900e7          	jalr	s2
    800016e8:	000c8413          	mv	s0,s9
    800016ec:	d09ff06f          	j	800013f4 <vprintfmt+0x60>
    800016f0:	00100513          	li	a0,1
    800016f4:	00000993          	li	s3,0
    800016f8:	00100c93          	li	s9,1
    800016fc:	dd7548e3          	blt	a0,s7,800014cc <vprintfmt+0x138>
    80001700:	df5ff06f          	j	800014f4 <vprintfmt+0x160>
    80001704:	419f08b3          	sub	a7,t5,s9
    80001708:	411e0bbb          	subw	s7,t3,a7
    8000170c:	09704463          	bgtz	s7,80001794 <vprintfmt+0x400>
    80001710:	000cc503          	lbu	a0,0(s9)
    80001714:	ce0500e3          	beqz	a0,800013f4 <vprintfmt+0x60>
    80001718:	fff00c13          	li	s8,-1
    8000171c:	0209dc63          	bgez	s3,80001754 <vprintfmt+0x3c0>
    80001720:	00048593          	mv	a1,s1
    80001724:	001c8c93          	addi	s9,s9,1
    80001728:	000900e7          	jalr	s2
    8000172c:	000cc503          	lbu	a0,0(s9)
    80001730:	fffb8b9b          	addiw	s7,s7,-1
    80001734:	fe0514e3          	bnez	a0,8000171c <vprintfmt+0x388>
    80001738:	cb705ee3          	blez	s7,800013f4 <vprintfmt+0x60>
    8000173c:	fffb8b9b          	addiw	s7,s7,-1
    80001740:	00048593          	mv	a1,s1
    80001744:	02000513          	li	a0,32
    80001748:	000900e7          	jalr	s2
    8000174c:	fe0b98e3          	bnez	s7,8000173c <vprintfmt+0x3a8>
    80001750:	ca5ff06f          	j	800013f4 <vprintfmt+0x60>
    80001754:	fff9899b          	addiw	s3,s3,-1
    80001758:	fd8994e3          	bne	s3,s8,80001720 <vprintfmt+0x38c>
    8000175c:	fddff06f          	j	80001738 <vprintfmt+0x3a4>
    80001760:	f40594e3          	bnez	a1,800016a8 <vprintfmt+0x314>
    80001764:	000b2983          	lw	s3,0(s6)
    80001768:	f45ff06f          	j	800016ac <vprintfmt+0x318>
    8000176c:	000cc503          	lbu	a0,0(s9)
    80001770:	fc0506e3          	beqz	a0,8000173c <vprintfmt+0x3a8>
    80001774:	fff00c13          	li	s8,-1
    80001778:	fa5ff06f          	j	8000171c <vprintfmt+0x388>
    8000177c:	05705263          	blez	s7,800017c0 <vprintfmt+0x42c>
    80001780:	02d00593          	li	a1,45
    80001784:	02bc0e63          	beq	s8,a1,800017c0 <vprintfmt+0x42c>
    80001788:	00001c97          	auipc	s9,0x1
    8000178c:	b88c8c93          	addi	s9,s9,-1144 # 80002310 <main+0x538>
    80001790:	de5ff06f          	j	80001574 <vprintfmt+0x1e0>
    80001794:	000c0c1b          	sext.w	s8,s8
    80001798:	fffb8b9b          	addiw	s7,s7,-1
    8000179c:	00048593          	mv	a1,s1
    800017a0:	000c0513          	mv	a0,s8
    800017a4:	000900e7          	jalr	s2
    800017a8:	fe0b98e3          	bnez	s7,80001798 <vprintfmt+0x404>
    800017ac:	f65ff06f          	j	80001710 <vprintfmt+0x37c>
    800017b0:	00098313          	mv	t1,s3
    800017b4:	000c8b13          	mv	s6,s9
    800017b8:	00a00f93          	li	t6,10
    800017bc:	cd5ff06f          	j	80001490 <vprintfmt+0xfc>
    800017c0:	00001c97          	auipc	s9,0x1
    800017c4:	b50c8c93          	addi	s9,s9,-1200 # 80002310 <main+0x538>
    800017c8:	02800513          	li	a0,40
    800017cc:	fff00c13          	li	s8,-1
    800017d0:	f4dff06f          	j	8000171c <vprintfmt+0x388>
    800017d4:	419e8bb3          	sub	s7,t4,s9
    800017d8:	417e0bbb          	subw	s7,t3,s7
    800017dc:	fb704ce3          	bgtz	s7,80001794 <vprintfmt+0x400>
    800017e0:	f31ff06f          	j	80001710 <vprintfmt+0x37c>

00000000800017e4 <sprintf_putch.2912>:
    800017e4:	0005b783          	ld	a5,0(a1)
    800017e8:	00a78023          	sb	a0,0(a5)
    800017ec:	0005b283          	ld	t0,0(a1)
    800017f0:	00128313          	addi	t1,t0,1
    800017f4:	0065b023          	sd	t1,0(a1)
    800017f8:	00008067          	ret

00000000800017fc <putchar>:
    800017fc:	04022803          	lw	a6,64(tp) # 40 <buflen.2798>
    80001800:	00020293          	mv	t0,tp
    80001804:	f8010113          	addi	sp,sp,-128
    80001808:	0018069b          	addiw	a3,a6,1
    8000180c:	01028333          	add	t1,t0,a6
    80001810:	03f10893          	addi	a7,sp,63
    80001814:	04d22023          	sw	a3,64(tp) # 40 <buflen.2798>
    80001818:	00a30023          	sb	a0,0(t1)
    8000181c:	00a00393          	li	t2,10
    80001820:	fc08fe13          	andi	t3,a7,-64
    80001824:	00750c63          	beq	a0,t2,8000183c <putchar+0x40>
    80001828:	04000513          	li	a0,64
    8000182c:	00a68863          	beq	a3,a0,8000183c <putchar+0x40>
    80001830:	00000513          	li	a0,0
    80001834:	08010113          	addi	sp,sp,128
    80001838:	00008067          	ret
    8000183c:	04000e93          	li	t4,64
    80001840:	01de3023          	sd	t4,0(t3)
    80001844:	00100f93          	li	t6,1
    80001848:	01fe3423          	sd	t6,8(t3)
    8000184c:	00020713          	mv	a4,tp
    80001850:	00ee3823          	sd	a4,16(t3)
    80001854:	00de3c23          	sd	a3,24(t3)
    80001858:	0ff0000f          	fence
    8000185c:	fffff797          	auipc	a5,0xfffff
    80001860:	7bc7b223          	sd	t3,1956(a5) # 80001000 <tohost>
    80001864:	fffff817          	auipc	a6,0xfffff
    80001868:	7dc80813          	addi	a6,a6,2012 # 80001040 <fromhost>
    8000186c:	00083603          	ld	a2,0(a6)
    80001870:	fe060ee3          	beqz	a2,8000186c <putchar+0x70>
    80001874:	fffff797          	auipc	a5,0xfffff
    80001878:	7c07b623          	sd	zero,1996(a5) # 80001040 <fromhost>
    8000187c:	0ff0000f          	fence
    80001880:	04022023          	sw	zero,64(tp) # 40 <buflen.2798>
    80001884:	000e3783          	ld	a5,0(t3)
    80001888:	00000513          	li	a0,0
    8000188c:	08010113          	addi	sp,sp,128
    80001890:	00008067          	ret

0000000080001894 <setStats>:
    80001894:	b00027f3          	csrr	a5,mcycle
    80001898:	00003717          	auipc	a4,0x3
    8000189c:	4a870713          	addi	a4,a4,1192 # 80004d40 <counters>
    800018a0:	00051e63          	bnez	a0,800018bc <setStats+0x28>
    800018a4:	00073683          	ld	a3,0(a4)
    800018a8:	00001617          	auipc	a2,0x1
    800018ac:	a7060613          	addi	a2,a2,-1424 # 80002318 <main+0x540>
    800018b0:	00003597          	auipc	a1,0x3
    800018b4:	4ac5b023          	sd	a2,1184(a1) # 80004d50 <counter_names>
    800018b8:	40d787b3          	sub	a5,a5,a3
    800018bc:	00003697          	auipc	a3,0x3
    800018c0:	48f6b223          	sd	a5,1156(a3) # 80004d40 <counters>
    800018c4:	b02023f3          	csrr	t2,minstret
    800018c8:	00051e63          	bnez	a0,800018e4 <setStats+0x50>
    800018cc:	00873283          	ld	t0,8(a4)
    800018d0:	00001317          	auipc	t1,0x1
    800018d4:	a5030313          	addi	t1,t1,-1456 # 80002320 <main+0x548>
    800018d8:	00003617          	auipc	a2,0x3
    800018dc:	48663023          	sd	t1,1152(a2) # 80004d58 <counter_names+0x8>
    800018e0:	405383b3          	sub	t2,t2,t0
    800018e4:	00003717          	auipc	a4,0x3
    800018e8:	46773223          	sd	t2,1124(a4) # 80004d48 <counters+0x8>
    800018ec:	00008067          	ret

00000000800018f0 <tohost_exit>:
    800018f0:	00151793          	slli	a5,a0,0x1
    800018f4:	0017e293          	ori	t0,a5,1
    800018f8:	fffff717          	auipc	a4,0xfffff
    800018fc:	70573423          	sd	t0,1800(a4) # 80001000 <tohost>
    80001900:	0000006f          	j	80001900 <tohost_exit+0x10>

0000000080001904 <handle_trap>:
    80001904:	000017b7          	lui	a5,0x1
    80001908:	a7378293          	addi	t0,a5,-1421 # a73 <_tbss_end+0xa2f>
    8000190c:	fffff717          	auipc	a4,0xfffff
    80001910:	6e573a23          	sd	t0,1780(a4) # 80001000 <tohost>
    80001914:	0000006f          	j	80001914 <handle_trap+0x10>

0000000080001918 <exit>:
    80001918:	ff010113          	addi	sp,sp,-16
    8000191c:	00113423          	sd	ra,8(sp)
    80001920:	fd1ff0ef          	jal	ra,800018f0 <tohost_exit>

0000000080001924 <abort>:
    80001924:	10d00793          	li	a5,269
    80001928:	fffff717          	auipc	a4,0xfffff
    8000192c:	6cf73c23          	sd	a5,1752(a4) # 80001000 <tohost>
    80001930:	0000006f          	j	80001930 <abort+0xc>

0000000080001934 <printstr>:
    80001934:	00054783          	lbu	a5,0(a0)
    80001938:	f8010113          	addi	sp,sp,-128
    8000193c:	03f10713          	addi	a4,sp,63
    80001940:	00050693          	mv	a3,a0
    80001944:	fc077293          	andi	t0,a4,-64
    80001948:	06078263          	beqz	a5,800019ac <printstr+0x78>
    8000194c:	00050613          	mv	a2,a0
    80001950:	00150513          	addi	a0,a0,1
    80001954:	00054303          	lbu	t1,0(a0)
    80001958:	fe031ce3          	bnez	t1,80001950 <printstr+0x1c>
    8000195c:	40c50533          	sub	a0,a0,a2
    80001960:	04000393          	li	t2,64
    80001964:	0072b023          	sd	t2,0(t0)
    80001968:	00100593          	li	a1,1
    8000196c:	00b2b423          	sd	a1,8(t0)
    80001970:	00d2b823          	sd	a3,16(t0)
    80001974:	00a2bc23          	sd	a0,24(t0)
    80001978:	0ff0000f          	fence
    8000197c:	fffff797          	auipc	a5,0xfffff
    80001980:	6857b223          	sd	t0,1668(a5) # 80001000 <tohost>
    80001984:	fffff817          	auipc	a6,0xfffff
    80001988:	6bc80813          	addi	a6,a6,1724 # 80001040 <fromhost>
    8000198c:	00083883          	ld	a7,0(a6)
    80001990:	fe088ee3          	beqz	a7,8000198c <printstr+0x58>
    80001994:	fffff797          	auipc	a5,0xfffff
    80001998:	6a07b623          	sd	zero,1708(a5) # 80001040 <fromhost>
    8000199c:	0ff0000f          	fence
    800019a0:	0002b783          	ld	a5,0(t0)
    800019a4:	08010113          	addi	sp,sp,128
    800019a8:	00008067          	ret
    800019ac:	00000513          	li	a0,0
    800019b0:	fb1ff06f          	j	80001960 <printstr+0x2c>

00000000800019b4 <thread_entry>:
    800019b4:	00050463          	beqz	a0,800019bc <thread_entry+0x8>
    800019b8:	0000006f          	j	800019b8 <thread_entry+0x4>
    800019bc:	00008067          	ret

00000000800019c0 <printhex>:
    800019c0:	fd010113          	addi	sp,sp,-48
    800019c4:	02113423          	sd	ra,40(sp)
    800019c8:	01710713          	addi	a4,sp,23
    800019cc:	00710813          	addi	a6,sp,7
    800019d0:	00900593          	li	a1,9
    800019d4:	00f57793          	andi	a5,a0,15
    800019d8:	03000613          	li	a2,48
    800019dc:	0ff7f693          	andi	a3,a5,255
    800019e0:	00f5f463          	bleu	a5,a1,800019e8 <printhex+0x28>
    800019e4:	05700613          	li	a2,87
    800019e8:	00c680bb          	addw	ra,a3,a2
    800019ec:	00170023          	sb	ra,0(a4)
    800019f0:	fff70713          	addi	a4,a4,-1
    800019f4:	00455513          	srli	a0,a0,0x4
    800019f8:	fce81ee3          	bne	a6,a4,800019d4 <printhex+0x14>
    800019fc:	00810513          	addi	a0,sp,8
    80001a00:	00010c23          	sb	zero,24(sp)
    80001a04:	f31ff0ef          	jal	ra,80001934 <printstr>
    80001a08:	02813083          	ld	ra,40(sp)
    80001a0c:	03010113          	addi	sp,sp,48
    80001a10:	00008067          	ret

0000000080001a14 <printf>:
    80001a14:	fa010113          	addi	sp,sp,-96
    80001a18:	02810313          	addi	t1,sp,40
    80001a1c:	02b13423          	sd	a1,40(sp)
    80001a20:	02c13823          	sd	a2,48(sp)
    80001a24:	02d13c23          	sd	a3,56(sp)
    80001a28:	00050613          	mv	a2,a0
    80001a2c:	00030693          	mv	a3,t1
    80001a30:	00000517          	auipc	a0,0x0
    80001a34:	dcc50513          	addi	a0,a0,-564 # 800017fc <putchar>
    80001a38:	00000593          	li	a1,0
    80001a3c:	00113c23          	sd	ra,24(sp)
    80001a40:	04e13023          	sd	a4,64(sp)
    80001a44:	04f13423          	sd	a5,72(sp)
    80001a48:	05013823          	sd	a6,80(sp)
    80001a4c:	05113c23          	sd	a7,88(sp)
    80001a50:	00613423          	sd	t1,8(sp)
    80001a54:	00000097          	auipc	ra,0x0
    80001a58:	940080e7          	jalr	-1728(ra) # 80001394 <vprintfmt>
    80001a5c:	01813083          	ld	ra,24(sp)
    80001a60:	00000513          	li	a0,0
    80001a64:	06010113          	addi	sp,sp,96
    80001a68:	00008067          	ret

0000000080001a6c <sprintf>:
    80001a6c:	fa010113          	addi	sp,sp,-96
    80001a70:	03010313          	addi	t1,sp,48
    80001a74:	02813023          	sd	s0,32(sp)
    80001a78:	00a13423          	sd	a0,8(sp)
    80001a7c:	02c13823          	sd	a2,48(sp)
    80001a80:	02d13c23          	sd	a3,56(sp)
    80001a84:	00050413          	mv	s0,a0
    80001a88:	00058613          	mv	a2,a1
    80001a8c:	00000517          	auipc	a0,0x0
    80001a90:	d5850513          	addi	a0,a0,-680 # 800017e4 <sprintf_putch.2912>
    80001a94:	00810593          	addi	a1,sp,8
    80001a98:	00030693          	mv	a3,t1
    80001a9c:	02113423          	sd	ra,40(sp)
    80001aa0:	04f13423          	sd	a5,72(sp)
    80001aa4:	04e13023          	sd	a4,64(sp)
    80001aa8:	05013823          	sd	a6,80(sp)
    80001aac:	05113c23          	sd	a7,88(sp)
    80001ab0:	00613c23          	sd	t1,24(sp)
    80001ab4:	8e1ff0ef          	jal	ra,80001394 <vprintfmt>
    80001ab8:	00813783          	ld	a5,8(sp)
    80001abc:	00078023          	sb	zero,0(a5)
    80001ac0:	00813503          	ld	a0,8(sp)
    80001ac4:	02813083          	ld	ra,40(sp)
    80001ac8:	4085053b          	subw	a0,a0,s0
    80001acc:	02013403          	ld	s0,32(sp)
    80001ad0:	06010113          	addi	sp,sp,96
    80001ad4:	00008067          	ret

0000000080001ad8 <memcpy>:
    80001ad8:	00c5e7b3          	or	a5,a1,a2
    80001adc:	00f562b3          	or	t0,a0,a5
    80001ae0:	0072f313          	andi	t1,t0,7
    80001ae4:	00c506b3          	add	a3,a0,a2
    80001ae8:	02030463          	beqz	t1,80001b10 <memcpy+0x38>
    80001aec:	04d57263          	bleu	a3,a0,80001b30 <memcpy+0x58>
    80001af0:	00c58633          	add	a2,a1,a2
    80001af4:	00050393          	mv	t2,a0
    80001af8:	00158593          	addi	a1,a1,1
    80001afc:	fff5c703          	lbu	a4,-1(a1)
    80001b00:	00138393          	addi	t2,t2,1
    80001b04:	fee38fa3          	sb	a4,-1(t2)
    80001b08:	feb618e3          	bne	a2,a1,80001af8 <memcpy+0x20>
    80001b0c:	00008067          	ret
    80001b10:	fed57ee3          	bleu	a3,a0,80001b0c <memcpy+0x34>
    80001b14:	00050893          	mv	a7,a0
    80001b18:	00858593          	addi	a1,a1,8
    80001b1c:	ff85b803          	ld	a6,-8(a1)
    80001b20:	00888893          	addi	a7,a7,8
    80001b24:	ff08bc23          	sd	a6,-8(a7)
    80001b28:	fed8e8e3          	bltu	a7,a3,80001b18 <memcpy+0x40>
    80001b2c:	00008067          	ret
    80001b30:	00008067          	ret

0000000080001b34 <memset>:
    80001b34:	00c567b3          	or	a5,a0,a2
    80001b38:	0077f293          	andi	t0,a5,7
    80001b3c:	00c50633          	add	a2,a0,a2
    80001b40:	02028063          	beqz	t0,80001b60 <memset+0x2c>
    80001b44:	04c57863          	bleu	a2,a0,80001b94 <memset+0x60>
    80001b48:	0ff5f593          	andi	a1,a1,255
    80001b4c:	00050313          	mv	t1,a0
    80001b50:	00130313          	addi	t1,t1,1
    80001b54:	feb30fa3          	sb	a1,-1(t1)
    80001b58:	fe661ce3          	bne	a2,t1,80001b50 <memset+0x1c>
    80001b5c:	00008067          	ret
    80001b60:	0ff5f393          	andi	t2,a1,255
    80001b64:	00839693          	slli	a3,t2,0x8
    80001b68:	00d3e733          	or	a4,t2,a3
    80001b6c:	01071813          	slli	a6,a4,0x10
    80001b70:	010768b3          	or	a7,a4,a6
    80001b74:	02089e13          	slli	t3,a7,0x20
    80001b78:	01c8eeb3          	or	t4,a7,t3
    80001b7c:	fec570e3          	bleu	a2,a0,80001b5c <memset+0x28>
    80001b80:	00050f13          	mv	t5,a0
    80001b84:	008f0f13          	addi	t5,t5,8
    80001b88:	ffdf3c23          	sd	t4,-8(t5)
    80001b8c:	fecf6ce3          	bltu	t5,a2,80001b84 <memset+0x50>
    80001b90:	00008067          	ret
    80001b94:	00008067          	ret

0000000080001b98 <_init>:
    80001b98:	f4010113          	addi	sp,sp,-192
    80001b9c:	0a813823          	sd	s0,176(sp)
    80001ba0:	0a913423          	sd	s1,168(sp)
    80001ba4:	0a113c23          	sd	ra,184(sp)
    80001ba8:	00020493          	mv	s1,tp
    80001bac:	00020313          	mv	t1,tp
    80001bb0:	40648433          	sub	s0,s1,t1
    80001bb4:	00040613          	mv	a2,s0
    80001bb8:	09313c23          	sd	s3,152(sp)
    80001bbc:	09413823          	sd	s4,144(sp)
    80001bc0:	00050993          	mv	s3,a0
    80001bc4:	00058a13          	mv	s4,a1
    80001bc8:	00020513          	mv	a0,tp
    80001bcc:	00003597          	auipc	a1,0x3
    80001bd0:	1b458593          	addi	a1,a1,436 # 80004d80 <_end>
    80001bd4:	0b213023          	sd	s2,160(sp)
    80001bd8:	09513423          	sd	s5,136(sp)
    80001bdc:	00020a93          	mv	s5,tp
    80001be0:	ef9ff0ef          	jal	ra,80001ad8 <memcpy>
    80001be4:	04420513          	addi	a0,tp,68 # 44 <_tbss_end>
    80001be8:	40950633          	sub	a2,a0,s1
    80001bec:	00000593          	li	a1,0
    80001bf0:	008a8533          	add	a0,s5,s0
    80001bf4:	00000097          	auipc	ra,0x0
    80001bf8:	f40080e7          	jalr	-192(ra) # 80001b34 <memset>
    80001bfc:	00098513          	mv	a0,s3
    80001c00:	000a0593          	mv	a1,s4
    80001c04:	db1ff0ef          	jal	ra,800019b4 <thread_entry>
    80001c08:	00000593          	li	a1,0
    80001c0c:	00000513          	li	a0,0
    80001c10:	00000097          	auipc	ra,0x0
    80001c14:	1c8080e7          	jalr	456(ra) # 80001dd8 <main>
    80001c18:	00003417          	auipc	s0,0x3
    80001c1c:	12840413          	addi	s0,s0,296 # 80004d40 <counters>
    80001c20:	00043683          	ld	a3,0(s0)
    80001c24:	03f10913          	addi	s2,sp,63
    80001c28:	fc097913          	andi	s2,s2,-64
    80001c2c:	00050993          	mv	s3,a0
    80001c30:	04069663          	bnez	a3,80001c7c <_init+0xe4>
    80001c34:	00843683          	ld	a3,8(s0)
    80001c38:	00069863          	bnez	a3,80001c48 <_init+0xb0>
    80001c3c:	00098513          	mv	a0,s3
    80001c40:	00000097          	auipc	ra,0x0
    80001c44:	cb0080e7          	jalr	-848(ra) # 800018f0 <tohost_exit>
    80001c48:	00090493          	mv	s1,s2
    80001c4c:	01843603          	ld	a2,24(s0)
    80001c50:	00048513          	mv	a0,s1
    80001c54:	00000597          	auipc	a1,0x0
    80001c58:	6f458593          	addi	a1,a1,1780 # 80002348 <main+0x570>
    80001c5c:	00000097          	auipc	ra,0x0
    80001c60:	e10080e7          	jalr	-496(ra) # 80001a6c <sprintf>
    80001c64:	00a484b3          	add	s1,s1,a0
    80001c68:	fc990ae3          	beq	s2,s1,80001c3c <_init+0xa4>
    80001c6c:	00090513          	mv	a0,s2
    80001c70:	00000097          	auipc	ra,0x0
    80001c74:	cc4080e7          	jalr	-828(ra) # 80001934 <printstr>
    80001c78:	fc5ff06f          	j	80001c3c <_init+0xa4>
    80001c7c:	01043603          	ld	a2,16(s0)
    80001c80:	00000597          	auipc	a1,0x0
    80001c84:	6c858593          	addi	a1,a1,1736 # 80002348 <main+0x570>
    80001c88:	00090513          	mv	a0,s2
    80001c8c:	00000097          	auipc	ra,0x0
    80001c90:	de0080e7          	jalr	-544(ra) # 80001a6c <sprintf>
    80001c94:	00843683          	ld	a3,8(s0)
    80001c98:	00a904b3          	add	s1,s2,a0
    80001c9c:	fc0686e3          	beqz	a3,80001c68 <_init+0xd0>
    80001ca0:	fadff06f          	j	80001c4c <_init+0xb4>

0000000080001ca4 <strlen>:
    80001ca4:	00054783          	lbu	a5,0(a0)
    80001ca8:	00050713          	mv	a4,a0
    80001cac:	00078c63          	beqz	a5,80001cc4 <strlen+0x20>
    80001cb0:	00150513          	addi	a0,a0,1
    80001cb4:	00054283          	lbu	t0,0(a0)
    80001cb8:	fe029ce3          	bnez	t0,80001cb0 <strlen+0xc>
    80001cbc:	40e50533          	sub	a0,a0,a4
    80001cc0:	00008067          	ret
    80001cc4:	00000513          	li	a0,0
    80001cc8:	00008067          	ret

0000000080001ccc <strnlen>:
    80001ccc:	00050713          	mv	a4,a0
    80001cd0:	02058663          	beqz	a1,80001cfc <strnlen+0x30>
    80001cd4:	00054783          	lbu	a5,0(a0)
    80001cd8:	02078263          	beqz	a5,80001cfc <strnlen+0x30>
    80001cdc:	00b505b3          	add	a1,a0,a1
    80001ce0:	00c0006f          	j	80001cec <strnlen+0x20>
    80001ce4:	00054283          	lbu	t0,0(a0)
    80001ce8:	00028663          	beqz	t0,80001cf4 <strnlen+0x28>
    80001cec:	00150513          	addi	a0,a0,1
    80001cf0:	feb51ae3          	bne	a0,a1,80001ce4 <strnlen+0x18>
    80001cf4:	40e50533          	sub	a0,a0,a4
    80001cf8:	00008067          	ret
    80001cfc:	00000513          	li	a0,0
    80001d00:	00008067          	ret

0000000080001d04 <strcmp>:
    80001d04:	00150513          	addi	a0,a0,1
    80001d08:	fff54783          	lbu	a5,-1(a0)
    80001d0c:	00158593          	addi	a1,a1,1
    80001d10:	fff5c703          	lbu	a4,-1(a1)
    80001d14:	00078a63          	beqz	a5,80001d28 <strcmp+0x24>
    80001d18:	fee786e3          	beq	a5,a4,80001d04 <strcmp>
    80001d1c:	0007851b          	sext.w	a0,a5
    80001d20:	40e5053b          	subw	a0,a0,a4
    80001d24:	00008067          	ret
    80001d28:	00000513          	li	a0,0
    80001d2c:	ff5ff06f          	j	80001d20 <strcmp+0x1c>

0000000080001d30 <strcpy>:
    80001d30:	00050793          	mv	a5,a0
    80001d34:	00158593          	addi	a1,a1,1
    80001d38:	fff5c703          	lbu	a4,-1(a1)
    80001d3c:	00178793          	addi	a5,a5,1
    80001d40:	fee78fa3          	sb	a4,-1(a5)
    80001d44:	fe0718e3          	bnez	a4,80001d34 <strcpy+0x4>
    80001d48:	00008067          	ret

0000000080001d4c <atol>:
    80001d4c:	00054783          	lbu	a5,0(a0)
    80001d50:	02000713          	li	a4,32
    80001d54:	00e79863          	bne	a5,a4,80001d64 <atol+0x18>
    80001d58:	00150513          	addi	a0,a0,1
    80001d5c:	00054783          	lbu	a5,0(a0)
    80001d60:	fee78ce3          	beq	a5,a4,80001d58 <atol+0xc>
    80001d64:	fd57829b          	addiw	t0,a5,-43
    80001d68:	0fd2f313          	andi	t1,t0,253
    80001d6c:	04030263          	beqz	t1,80001db0 <atol+0x64>
    80001d70:	00054683          	lbu	a3,0(a0)
    80001d74:	04068c63          	beqz	a3,80001dcc <atol+0x80>
    80001d78:	00050813          	mv	a6,a0
    80001d7c:	00000613          	li	a2,0
    80001d80:	00000513          	li	a0,0
    80001d84:	00180813          	addi	a6,a6,1
    80001d88:	fd06859b          	addiw	a1,a3,-48
    80001d8c:	00251893          	slli	a7,a0,0x2
    80001d90:	00084683          	lbu	a3,0(a6)
    80001d94:	00a88533          	add	a0,a7,a0
    80001d98:	00151e13          	slli	t3,a0,0x1
    80001d9c:	01c58533          	add	a0,a1,t3
    80001da0:	fe0692e3          	bnez	a3,80001d84 <atol+0x38>
    80001da4:	00060463          	beqz	a2,80001dac <atol+0x60>
    80001da8:	40a00533          	neg	a0,a0
    80001dac:	00008067          	ret
    80001db0:	00154683          	lbu	a3,1(a0)
    80001db4:	fd378393          	addi	t2,a5,-45
    80001db8:	0013b613          	seqz	a2,t2
    80001dbc:	00150813          	addi	a6,a0,1
    80001dc0:	fc0690e3          	bnez	a3,80001d80 <atol+0x34>
    80001dc4:	00000513          	li	a0,0
    80001dc8:	fddff06f          	j	80001da4 <atol+0x58>
    80001dcc:	00000513          	li	a0,0
    80001dd0:	00008067          	ret
    80001dd4:	0000                	unimp
	...

Disassembly of section .text.startup:

0000000080001dd8 <main>:
    80001dd8:	00000797          	auipc	a5,0x0
    80001ddc:	3e878793          	addi	a5,a5,1000 # 800021c0 <main+0x3e8>
    80001de0:	0007a383          	lw	t2,0(a5)
    80001de4:	0047a283          	lw	t0,4(a5)
    80001de8:	f5010113          	addi	sp,sp,-176
    80001dec:	0087af83          	lw	t6,8(a5)
    80001df0:	0a813023          	sd	s0,160(sp)
    80001df4:	08913c23          	sd	s1,152(sp)
    80001df8:	09213823          	sd	s2,144(sp)
    80001dfc:	09313423          	sd	s3,136(sp)
    80001e00:	84818493          	addi	s1,gp,-1976 # 800024f8 <_Next_Glob>
    80001e04:	88018413          	addi	s0,gp,-1920 # 80002530 <_Glob>
    80001e08:	00200913          	li	s2,2
    80001e0c:	02800993          	li	s3,40
    80001e10:	00c7af03          	lw	t5,12(a5)
    80001e14:	0107ae83          	lw	t4,16(a5)
    80001e18:	0147ae03          	lw	t3,20(a5)
    80001e1c:	0187a303          	lw	t1,24(a5)
    80001e20:	01c7d883          	lhu	a7,28(a5)
    80001e24:	01e7c803          	lbu	a6,30(a5)
    80001e28:	0a113423          	sd	ra,168(sp)
    80001e2c:	00000717          	auipc	a4,0x0
    80001e30:	48470713          	addi	a4,a4,1156 # 800022b0 <main+0x4d8>
    80001e34:	09413023          	sd	s4,128(sp)
    80001e38:	07513c23          	sd	s5,120(sp)
    80001e3c:	00000097          	auipc	ra,0x0
    80001e40:	6a90b623          	sd	s1,1708(ra) # 800024e8 <Next_Ptr_Glob>
    80001e44:	00000097          	auipc	ra,0x0
    80001e48:	6a80b623          	sd	s0,1708(ra) # 800024f0 <Ptr_Glob>
    80001e4c:	8891b023          	sd	s1,-1920(gp) # 80002530 <_Glob>
    80001e50:	8921a623          	sw	s2,-1908(gp) # 8000253c <_Glob+0xc>
    80001e54:	8931a823          	sw	s3,-1904(gp) # 80002540 <_Glob+0x10>
    80001e58:	07613823          	sd	s6,112(sp)
    80001e5c:	07713423          	sd	s7,104(sp)
    80001e60:	07813023          	sd	s8,96(sp)
    80001e64:	05913c23          	sd	s9,88(sp)
    80001e68:	05a13823          	sd	s10,80(sp)
    80001e6c:	8871aa23          	sw	t2,-1900(gp) # 80002544 <_Glob+0x14>
    80001e70:	8851ac23          	sw	t0,-1896(gp) # 80002548 <_Glob+0x18>
    80001e74:	00073503          	ld	a0,0(a4)
    80001e78:	00873583          	ld	a1,8(a4)
    80001e7c:	01073603          	ld	a2,16(a4)
    80001e80:	01872683          	lw	a3,24(a4)
    80001e84:	89f1ae23          	sw	t6,-1892(gp) # 8000254c <_Glob+0x1c>
    80001e88:	01c75083          	lhu	ra,28(a4)
    80001e8c:	01e74a03          	lbu	s4,30(a4)
    80001e90:	00a00a93          	li	s5,10
    80001e94:	8be1a023          	sw	t5,-1888(gp) # 80002550 <_Glob+0x20>
    80001e98:	8bd1a223          	sw	t4,-1884(gp) # 80002554 <_Glob+0x24>
    80001e9c:	8bc1a423          	sw	t3,-1880(gp) # 80002558 <_Glob+0x28>
    80001ea0:	8a61a623          	sw	t1,-1876(gp) # 8000255c <_Glob+0x2c>
    80001ea4:	8b119823          	sh	a7,-1872(gp) # 80002560 <_Glob+0x30>
    80001ea8:	8b018923          	sb	a6,-1870(gp) # 80002562 <_Glob+0x32>
    80001eac:	00a13823          	sd	a0,16(sp)
    80001eb0:	00b13c23          	sd	a1,24(sp)
    80001eb4:	02c13023          	sd	a2,32(sp)
    80001eb8:	02d12423          	sw	a3,40(sp)
    80001ebc:	8801a423          	sw	zero,-1912(gp) # 80002538 <_Glob+0x8>
    80001ec0:	02111623          	sh	ra,44(sp)
    80001ec4:	03410723          	sb	s4,46(sp)
    80001ec8:	00001717          	auipc	a4,0x1
    80001ecc:	dd572223          	sw	s5,-572(a4) # 80002c8c <Arr_2_Glob+0x65c>
    80001ed0:	b0002d73          	csrr	s10,mcycle
    80001ed4:	00000797          	auipc	a5,0x0
    80001ed8:	3fc78793          	addi	a5,a5,1020 # 800022d0 <main+0x4f8>
    80001edc:	0007bc83          	ld	s9,0(a5)
    80001ee0:	0087bc03          	ld	s8,8(a5)
    80001ee4:	0107bb83          	ld	s7,16(a5)
    80001ee8:	0187ab03          	lw	s6,24(a5)
    80001eec:	01c7da83          	lhu	s5,28(a5)
    80001ef0:	01e7ca03          	lbu	s4,30(a5)
    80001ef4:	00000717          	auipc	a4,0x0
    80001ef8:	5da73e23          	sd	s10,1500(a4) # 800024d0 <Begin_Time>
    80001efc:	00100913          	li	s2,1
    80001f00:	00000497          	auipc	s1,0x0
    80001f04:	5dc48493          	addi	s1,s1,1500 # 800024dc <Ch_2_Glob>
    80001f08:	00000997          	auipc	s3,0x0
    80001f0c:	5e898993          	addi	s3,s3,1512 # 800024f0 <Ptr_Glob>
    80001f10:	04100713          	li	a4,65
    80001f14:	00100293          	li	t0,1
    80001f18:	04200f93          	li	t6,66
    80001f1c:	03010593          	addi	a1,sp,48
    80001f20:	01010513          	addi	a0,sp,16
    80001f24:	00000697          	auipc	a3,0x0
    80001f28:	5ae68ca3          	sb	a4,1465(a3) # 800024dd <Ch_1_Glob>
    80001f2c:	00000697          	auipc	a3,0x0
    80001f30:	5bf68823          	sb	t6,1456(a3) # 800024dc <Ch_2_Glob>
    80001f34:	00000717          	auipc	a4,0x0
    80001f38:	5a572623          	sw	t0,1452(a4) # 800024e0 <Bool_Glob>
    80001f3c:	00512623          	sw	t0,12(sp)
    80001f40:	03913823          	sd	s9,48(sp)
    80001f44:	03813c23          	sd	s8,56(sp)
    80001f48:	05713023          	sd	s7,64(sp)
    80001f4c:	05612423          	sw	s6,72(sp)
    80001f50:	05511623          	sh	s5,76(sp)
    80001f54:	05410723          	sb	s4,78(sp)
    80001f58:	9e0ff0ef          	jal	ra,80001138 <Func_2>
    80001f5c:	00153f13          	seqz	t5,a0
    80001f60:	00700e93          	li	t4,7
    80001f64:	00810613          	addi	a2,sp,8
    80001f68:	00300593          	li	a1,3
    80001f6c:	00200513          	li	a0,2
    80001f70:	00000717          	auipc	a4,0x0
    80001f74:	57e72823          	sw	t5,1392(a4) # 800024e0 <Bool_Glob>
    80001f78:	01d12423          	sw	t4,8(sp)
    80001f7c:	fffff097          	auipc	ra,0xfffff
    80001f80:	120080e7          	jalr	288(ra) # 8000109c <Proc_7>
    80001f84:	00812683          	lw	a3,8(sp)
    80001f88:	00300613          	li	a2,3
    80001f8c:	00000597          	auipc	a1,0x0
    80001f90:	6a458593          	addi	a1,a1,1700 # 80002630 <Arr_2_Glob>
    80001f94:	8b818513          	addi	a0,gp,-1864 # 80002568 <Arr_1_Glob>
    80001f98:	914ff0ef          	jal	ra,800010ac <Proc_8>
    80001f9c:	0009b503          	ld	a0,0(s3)
    80001fa0:	a80ff0ef          	jal	ra,80001220 <Proc_1>
    80001fa4:	0004ce03          	lbu	t3,0(s1)
    80001fa8:	04000313          	li	t1,64
    80001fac:	09c37a63          	bleu	t3,t1,80002040 <main+0x268>
    80001fb0:	04100413          	li	s0,65
    80001fb4:	00000d17          	auipc	s10,0x0
    80001fb8:	33cd0d13          	addi	s10,s10,828 # 800022f0 <main+0x518>
    80001fbc:	0140006f          	j	80001fd0 <main+0x1f8>
    80001fc0:	0004c083          	lbu	ra,0(s1)
    80001fc4:	0014041b          	addiw	s0,s0,1
    80001fc8:	0ff47413          	andi	s0,s0,255
    80001fcc:	0680ea63          	bltu	ra,s0,80002040 <main+0x268>
    80001fd0:	04300593          	li	a1,67
    80001fd4:	00040513          	mv	a0,s0
    80001fd8:	fffff097          	auipc	ra,0xfffff
    80001fdc:	13c080e7          	jalr	316(ra) # 80001114 <Func_1>
    80001fe0:	00c12883          	lw	a7,12(sp)
    80001fe4:	0005081b          	sext.w	a6,a0
    80001fe8:	fd089ce3          	bne	a7,a6,80001fc0 <main+0x1e8>
    80001fec:	00c10593          	addi	a1,sp,12
    80001ff0:	00000513          	li	a0,0
    80001ff4:	854ff0ef          	jal	ra,80001048 <Proc_6>
    80001ff8:	01ed4783          	lbu	a5,30(s10)
    80001ffc:	000d3503          	ld	a0,0(s10)
    80002000:	008d3583          	ld	a1,8(s10)
    80002004:	010d3603          	ld	a2,16(s10)
    80002008:	018d2683          	lw	a3,24(s10)
    8000200c:	01cd5383          	lhu	t2,28(s10)
    80002010:	0004c083          	lbu	ra,0(s1)
    80002014:	0014041b          	addiw	s0,s0,1
    80002018:	04f10723          	sb	a5,78(sp)
    8000201c:	02a13823          	sd	a0,48(sp)
    80002020:	02b13c23          	sd	a1,56(sp)
    80002024:	04c13023          	sd	a2,64(sp)
    80002028:	04d12423          	sw	a3,72(sp)
    8000202c:	04711623          	sh	t2,76(sp)
    80002030:	00000797          	auipc	a5,0x0
    80002034:	4b27aa23          	sw	s2,1204(a5) # 800024e4 <Int_Glob>
    80002038:	0ff47413          	andi	s0,s0,255
    8000203c:	f880fae3          	bleu	s0,ra,80001fd0 <main+0x1f8>
    80002040:	0019091b          	addiw	s2,s2,1
    80002044:	40100293          	li	t0,1025
    80002048:	ec5914e3          	bne	s2,t0,80001f10 <main+0x138>
    8000204c:	b0002cf3          	csrr	s9,mcycle
    80002050:	00000c17          	auipc	s8,0x0
    80002054:	480c0c13          	addi	s8,s8,1152 # 800024d0 <Begin_Time>
    80002058:	000c3b83          	ld	s7,0(s8)
    8000205c:	00000717          	auipc	a4,0x0
    80002060:	47973623          	sd	s9,1132(a4) # 800024c8 <End_Time>
    80002064:	00100b13          	li	s6,1
    80002068:	417c8ab3          	sub	s5,s9,s7
    8000206c:	00000697          	auipc	a3,0x0
    80002070:	4556ba23          	sd	s5,1108(a3) # 800024c0 <User_Time>
    80002074:	00000a17          	auipc	s4,0x0
    80002078:	44ca0a13          	addi	s4,s4,1100 # 800024c0 <User_Time>
    8000207c:	0f5b5263          	ble	s5,s6,80002160 <main+0x388>
    80002080:	00000517          	auipc	a0,0x0
    80002084:	1c050513          	addi	a0,a0,448 # 80002240 <main+0x468>
    80002088:	00000097          	auipc	ra,0x0
    8000208c:	98c080e7          	jalr	-1652(ra) # 80001a14 <printf>
    80002090:	000a3483          	ld	s1,0(s4)
    80002094:	009899b7          	lui	s3,0x989
    80002098:	68098713          	addi	a4,s3,1664 # 989680 <_tbss_end+0x98963c>
    8000209c:	02e48fb3          	mul	t6,s1,a4
    800020a0:	1312df37          	lui	t5,0x1312d
    800020a4:	00af1d13          	slli	s10,t5,0xa
    800020a8:	00a00e13          	li	t3,10
    800020ac:	00000517          	auipc	a0,0x0
    800020b0:	1c450513          	addi	a0,a0,452 # 80002270 <main+0x498>
    800020b4:	03afdeb3          	divu	t4,t6,s10
    800020b8:	00000717          	auipc	a4,0x0
    800020bc:	41f73023          	sd	t6,1024(a4) # 800024b8 <Microseconds>
    800020c0:	03cff633          	remu	a2,t6,t3
    800020c4:	000e859b          	sext.w	a1,t4
    800020c8:	00000097          	auipc	ra,0x0
    800020cc:	94c080e7          	jalr	-1716(ra) # 80001a14 <printf>
    800020d0:	00000517          	auipc	a0,0x0
    800020d4:	1b050513          	addi	a0,a0,432 # 80002280 <main+0x4a8>
    800020d8:	00000097          	auipc	ra,0x0
    800020dc:	93c080e7          	jalr	-1732(ra) # 80001a14 <printf>
    800020e0:	000a3303          	ld	t1,0(s4)
    800020e4:	00000613          	li	a2,0
    800020e8:	00000517          	auipc	a0,0x0
    800020ec:	18850513          	addi	a0,a0,392 # 80002270 <main+0x498>
    800020f0:	00231893          	slli	a7,t1,0x2
    800020f4:	00688833          	add	a6,a7,t1
    800020f8:	00181593          	slli	a1,a6,0x1
    800020fc:	02bd56b3          	divu	a3,s10,a1
    80002100:	00000797          	auipc	a5,0x0
    80002104:	3ba7b823          	sd	s10,944(a5) # 800024b0 <Dhrystones_Per_Second>
    80002108:	0006859b          	sext.w	a1,a3
    8000210c:	00000097          	auipc	ra,0x0
    80002110:	908080e7          	jalr	-1784(ra) # 80001a14 <printf>
    80002114:	00000517          	auipc	a0,0x0
    80002118:	12450513          	addi	a0,a0,292 # 80002238 <main+0x460>
    8000211c:	00000097          	auipc	ra,0x0
    80002120:	8f8080e7          	jalr	-1800(ra) # 80001a14 <printf>
    80002124:	0a813083          	ld	ra,168(sp)
    80002128:	0a013403          	ld	s0,160(sp)
    8000212c:	09813483          	ld	s1,152(sp)
    80002130:	09013903          	ld	s2,144(sp)
    80002134:	08813983          	ld	s3,136(sp)
    80002138:	08013a03          	ld	s4,128(sp)
    8000213c:	07813a83          	ld	s5,120(sp)
    80002140:	07013b03          	ld	s6,112(sp)
    80002144:	06813b83          	ld	s7,104(sp)
    80002148:	06013c03          	ld	s8,96(sp)
    8000214c:	05813c83          	ld	s9,88(sp)
    80002150:	05013d03          	ld	s10,80(sp)
    80002154:	00000513          	li	a0,0
    80002158:	0b010113          	addi	sp,sp,176
    8000215c:	00008067          	ret
    80002160:	00000517          	auipc	a0,0x0
    80002164:	08050513          	addi	a0,a0,128 # 800021e0 <main+0x408>
    80002168:	00000097          	auipc	ra,0x0
    8000216c:	8ac080e7          	jalr	-1876(ra) # 80001a14 <printf>
    80002170:	00000517          	auipc	a0,0x0
    80002174:	0a850513          	addi	a0,a0,168 # 80002218 <main+0x440>
    80002178:	00000097          	auipc	ra,0x0
    8000217c:	89c080e7          	jalr	-1892(ra) # 80001a14 <printf>
    80002180:	00000517          	auipc	a0,0x0
    80002184:	0b850513          	addi	a0,a0,184 # 80002238 <main+0x460>
    80002188:	00000097          	auipc	ra,0x0
    8000218c:	88c080e7          	jalr	-1908(ra) # 80001a14 <printf>
    80002190:	f95ff06f          	j	80002124 <main+0x34c>
    80002194:	0000                	unimp
    80002196:	0000                	unimp
    80002198:	ff010113          	addi	sp,sp,-16
    8000219c:	00000517          	auipc	a0,0x0
    800021a0:	19450513          	addi	a0,a0,404 # 80002330 <main+0x558>
    800021a4:	00113423          	sd	ra,8(sp)
    800021a8:	f8cff0ef          	jal	ra,80001934 <printstr>
    800021ac:	00813083          	ld	ra,8(sp)
    800021b0:	fff00513          	li	a0,-1
    800021b4:	01010113          	addi	sp,sp,16
    800021b8:	00008067          	ret
	...
