
mm.riscv:     file format elf64-littleriscv


Disassembly of section .text.init:

0000000080000000 <_start>:
    80000000:	00000093          	li	ra,0
    80000004:	00000113          	li	sp,0
    80000008:	00000193          	li	gp,0
    8000000c:	00000213          	li	tp,0
    80000010:	00000293          	li	t0,0
    80000014:	00000313          	li	t1,0
    80000018:	00000393          	li	t2,0
    8000001c:	00000413          	li	s0,0
    80000020:	00000493          	li	s1,0
    80000024:	00000513          	li	a0,0
    80000028:	00000593          	li	a1,0
    8000002c:	00000613          	li	a2,0
    80000030:	00000693          	li	a3,0
    80000034:	00000713          	li	a4,0
    80000038:	00000793          	li	a5,0
    8000003c:	00000813          	li	a6,0
    80000040:	00000893          	li	a7,0
    80000044:	00000913          	li	s2,0
    80000048:	00000993          	li	s3,0
    8000004c:	00000a13          	li	s4,0
    80000050:	00000a93          	li	s5,0
    80000054:	00000b13          	li	s6,0
    80000058:	00000b93          	li	s7,0
    8000005c:	00000c13          	li	s8,0
    80000060:	00000c93          	li	s9,0
    80000064:	00000d13          	li	s10,0
    80000068:	00000d93          	li	s11,0
    8000006c:	00000e13          	li	t3,0
    80000070:	00000e93          	li	t4,0
    80000074:	00000f13          	li	t5,0
    80000078:	00000f93          	li	t6,0
    8000007c:	0001e2b7          	lui	t0,0x1e
    80000080:	3002a073          	csrs	mstatus,t0
    80000084:	00100293          	li	t0,1
    80000088:	01f29293          	slli	t0,t0,0x1f
    8000008c:	0002da63          	bgez	t0,800000a0 <_start+0xa0>
    80000090:	00100513          	li	a0,1
    80000094:	00001297          	auipc	t0,0x1
    80000098:	f6a2a623          	sw	a0,-148(t0) # 80001000 <tohost>
    8000009c:	ff5ff06f          	j	80000090 <_start+0x90>
    800000a0:	00000297          	auipc	t0,0x0
    800000a4:	09028293          	addi	t0,t0,144 # 80000130 <_start+0x130>
    800000a8:	30529073          	csrw	mtvec,t0
    800000ac:	00301073          	fssr	zero
    800000b0:	f0000053          	fmv.s.x	ft0,zero
    800000b4:	f00000d3          	fmv.s.x	ft1,zero
    800000b8:	f0000153          	fmv.s.x	ft2,zero
    800000bc:	f00001d3          	fmv.s.x	ft3,zero
    800000c0:	f0000253          	fmv.s.x	ft4,zero
    800000c4:	f00002d3          	fmv.s.x	ft5,zero
    800000c8:	f0000353          	fmv.s.x	ft6,zero
    800000cc:	f00003d3          	fmv.s.x	ft7,zero
    800000d0:	f0000453          	fmv.s.x	fs0,zero
    800000d4:	f00004d3          	fmv.s.x	fs1,zero
    800000d8:	f0000553          	fmv.s.x	fa0,zero
    800000dc:	f00005d3          	fmv.s.x	fa1,zero
    800000e0:	f0000653          	fmv.s.x	fa2,zero
    800000e4:	f00006d3          	fmv.s.x	fa3,zero
    800000e8:	f0000753          	fmv.s.x	fa4,zero
    800000ec:	f00007d3          	fmv.s.x	fa5,zero
    800000f0:	f0000853          	fmv.s.x	fa6,zero
    800000f4:	f00008d3          	fmv.s.x	fa7,zero
    800000f8:	f0000953          	fmv.s.x	fs2,zero
    800000fc:	f00009d3          	fmv.s.x	fs3,zero
    80000100:	f0000a53          	fmv.s.x	fs4,zero
    80000104:	f0000ad3          	fmv.s.x	fs5,zero
    80000108:	f0000b53          	fmv.s.x	fs6,zero
    8000010c:	f0000bd3          	fmv.s.x	fs7,zero
    80000110:	f0000c53          	fmv.s.x	fs8,zero
    80000114:	f0000cd3          	fmv.s.x	fs9,zero
    80000118:	f0000d53          	fmv.s.x	fs10,zero
    8000011c:	f0000dd3          	fmv.s.x	fs11,zero
    80000120:	f0000e53          	fmv.s.x	ft8,zero
    80000124:	f0000ed3          	fmv.s.x	ft9,zero
    80000128:	f0000f53          	fmv.s.x	ft10,zero
    8000012c:	f0000fd3          	fmv.s.x	ft11,zero
    80000130:	00000297          	auipc	t0,0x0
    80000134:	04028293          	addi	t0,t0,64 # 80000170 <trap_entry>
    80000138:	30529073          	csrw	mtvec,t0
    8000013c:	00005197          	auipc	gp,0x5
    80000140:	1ac18193          	addi	gp,gp,428 # 800052e8 <__global_pointer$>
    80000144:	ad718213          	addi	tp,gp,-1321 # 80004dbf <_end+0x3f>
    80000148:	fc027213          	andi	tp,tp,-64
    8000014c:	f1402573          	csrr	a0,mhartid
    80000150:	00100593          	li	a1,1
    80000154:	00b57063          	bleu	a1,a0,80000154 <_start+0x154>
    80000158:	01151613          	slli	a2,a0,0x11
    8000015c:	00c20233          	add	tp,tp,a2
    80000160:	00150113          	addi	sp,a0,1
    80000164:	01111113          	slli	sp,sp,0x11
    80000168:	00410133          	add	sp,sp,tp
    8000016c:	7180406f          	j	80004884 <_init>

0000000080000170 <trap_entry>:
    80000170:	ef010113          	addi	sp,sp,-272
    80000174:	00113423          	sd	ra,8(sp)
    80000178:	00213823          	sd	sp,16(sp)
    8000017c:	00313c23          	sd	gp,24(sp)
    80000180:	02413023          	sd	tp,32(sp)
    80000184:	02513423          	sd	t0,40(sp)
    80000188:	02613823          	sd	t1,48(sp)
    8000018c:	02713c23          	sd	t2,56(sp)
    80000190:	04813023          	sd	s0,64(sp)
    80000194:	04913423          	sd	s1,72(sp)
    80000198:	04a13823          	sd	a0,80(sp)
    8000019c:	04b13c23          	sd	a1,88(sp)
    800001a0:	06c13023          	sd	a2,96(sp)
    800001a4:	06d13423          	sd	a3,104(sp)
    800001a8:	06e13823          	sd	a4,112(sp)
    800001ac:	06f13c23          	sd	a5,120(sp)
    800001b0:	09013023          	sd	a6,128(sp)
    800001b4:	09113423          	sd	a7,136(sp)
    800001b8:	09213823          	sd	s2,144(sp)
    800001bc:	09313c23          	sd	s3,152(sp)
    800001c0:	0b413023          	sd	s4,160(sp)
    800001c4:	0b513423          	sd	s5,168(sp)
    800001c8:	0b613823          	sd	s6,176(sp)
    800001cc:	0b713c23          	sd	s7,184(sp)
    800001d0:	0d813023          	sd	s8,192(sp)
    800001d4:	0d913423          	sd	s9,200(sp)
    800001d8:	0da13823          	sd	s10,208(sp)
    800001dc:	0db13c23          	sd	s11,216(sp)
    800001e0:	0fc13023          	sd	t3,224(sp)
    800001e4:	0fd13423          	sd	t4,232(sp)
    800001e8:	0fe13823          	sd	t5,240(sp)
    800001ec:	0ff13c23          	sd	t6,248(sp)
    800001f0:	34202573          	csrr	a0,mcause
    800001f4:	341025f3          	csrr	a1,mepc
    800001f8:	00010613          	mv	a2,sp
    800001fc:	3f4040ef          	jal	ra,800045f0 <handle_trap>
    80000200:	34151073          	csrw	mepc,a0
    80000204:	000022b7          	lui	t0,0x2
    80000208:	8002829b          	addiw	t0,t0,-2048
    8000020c:	3002a073          	csrs	mstatus,t0
    80000210:	00813083          	ld	ra,8(sp)
    80000214:	01013103          	ld	sp,16(sp)
    80000218:	01813183          	ld	gp,24(sp)
    8000021c:	02013203          	ld	tp,32(sp)
    80000220:	02813283          	ld	t0,40(sp)
    80000224:	03013303          	ld	t1,48(sp)
    80000228:	03813383          	ld	t2,56(sp)
    8000022c:	04013403          	ld	s0,64(sp)
    80000230:	04813483          	ld	s1,72(sp)
    80000234:	05013503          	ld	a0,80(sp)
    80000238:	05813583          	ld	a1,88(sp)
    8000023c:	06013603          	ld	a2,96(sp)
    80000240:	06813683          	ld	a3,104(sp)
    80000244:	07013703          	ld	a4,112(sp)
    80000248:	07813783          	ld	a5,120(sp)
    8000024c:	08013803          	ld	a6,128(sp)
    80000250:	08813883          	ld	a7,136(sp)
    80000254:	09013903          	ld	s2,144(sp)
    80000258:	09813983          	ld	s3,152(sp)
    8000025c:	0a013a03          	ld	s4,160(sp)
    80000260:	0a813a83          	ld	s5,168(sp)
    80000264:	0b013b03          	ld	s6,176(sp)
    80000268:	0b813b83          	ld	s7,184(sp)
    8000026c:	0c013c03          	ld	s8,192(sp)
    80000270:	0c813c83          	ld	s9,200(sp)
    80000274:	0d013d03          	ld	s10,208(sp)
    80000278:	0d813d83          	ld	s11,216(sp)
    8000027c:	0e013e03          	ld	t3,224(sp)
    80000280:	0e813e83          	ld	t4,232(sp)
    80000284:	0f013f03          	ld	t5,240(sp)
    80000288:	0f813f83          	ld	t6,248(sp)
    8000028c:	11010113          	addi	sp,sp,272
    80000290:	30200073          	mret
	...

Disassembly of section .tohost:

0000000080001000 <tohost>:
	...

0000000080001040 <fromhost>:
	...

Disassembly of section .text:

0000000080001048 <mm_naive>:
    80001048:	1a050c63          	beqz	a0,80001200 <mm_naive+0x1b8>
    8000104c:	f9010113          	addi	sp,sp,-112
    80001050:	01b13823          	sd	s11,16(sp)
    80001054:	07013d83          	ld	s11,112(sp)
    80001058:	06813423          	sd	s0,104(sp)
    8000105c:	00381413          	slli	s0,a6,0x3
    80001060:	06913023          	sd	s1,96(sp)
    80001064:	03713823          	sd	s7,48(sp)
    80001068:	03813423          	sd	s8,40(sp)
    8000106c:	00361493          	slli	s1,a2,0x3
    80001070:	41000bb3          	neg	s7,a6
    80001074:	00088c13          	mv	s8,a7
    80001078:	008788b3          	add	a7,a5,s0
    8000107c:	05513023          	sd	s5,64(sp)
    80001080:	03613c23          	sd	s6,56(sp)
    80001084:	03913023          	sd	s9,32(sp)
    80001088:	01a13c23          	sd	s10,24(sp)
    8000108c:	01113423          	sd	a7,8(sp)
    80001090:	05213c23          	sd	s2,88(sp)
    80001094:	05313823          	sd	s3,80(sp)
    80001098:	05413423          	sd	s4,72(sp)
    8000109c:	003d9d93          	slli	s11,s11,0x3
    800010a0:	00371d13          	slli	s10,a4,0x3
    800010a4:	00068b13          	mv	s6,a3
    800010a8:	00d484b3          	add	s1,s1,a3
    800010ac:	00581e13          	slli	t3,a6,0x5
    800010b0:	003b9b93          	slli	s7,s7,0x3
    800010b4:	00000a93          	li	s5,0
    800010b8:	00000c93          	li	s9,0
    800010bc:	ffc67893          	andi	a7,a2,-4
    800010c0:	0e058263          	beqz	a1,800011a4 <mm_naive+0x15c>
    800010c4:	00813903          	ld	s2,8(sp)
    800010c8:	000c0993          	mv	s3,s8
    800010cc:	00000a13          	li	s4,0
    800010d0:	0009b787          	fld	fa5,0(s3)
    800010d4:	12088063          	beqz	a7,800011f4 <mm_naive+0x1ac>
    800010d8:	f20006d3          	fmv.d.x	fa3,zero
    800010dc:	01240eb3          	add	t4,s0,s2
    800010e0:	012b83b3          	add	t2,s7,s2
    800010e4:	22d68653          	fmv.d	fa2,fa3
    800010e8:	22d68353          	fmv.d	ft6,fa3
    800010ec:	008e82b3          	add	t0,t4,s0
    800010f0:	00090f93          	mv	t6,s2
    800010f4:	000b0313          	mv	t1,s6
    800010f8:	00000f13          	li	t5,0
    800010fc:	00033287          	fld	ft5,0(t1)
    80001100:	0003b207          	fld	ft4,0(t2)
    80001104:	00833187          	fld	ft3,8(t1)
    80001108:	000fb107          	fld	ft2,0(t6)
    8000110c:	01033087          	fld	ft1,16(t1)
    80001110:	000eb007          	fld	ft0,0(t4)
    80001114:	01833507          	fld	fa0,24(t1)
    80001118:	0002b587          	fld	fa1,0(t0) # 2000 <_tbss_end+0x1f7c>
    8000111c:	004f0f13          	addi	t5,t5,4
    80001120:	7a42f7c3          	fmadd.d	fa5,ft5,ft4,fa5
    80001124:	3221f343          	fmadd.d	ft6,ft3,ft2,ft6
    80001128:	6200f643          	fmadd.d	fa2,ft1,ft0,fa2
    8000112c:	6ab576c3          	fmadd.d	fa3,fa0,fa1,fa3
    80001130:	02030313          	addi	t1,t1,32
    80001134:	01c383b3          	add	t2,t2,t3
    80001138:	01cf8fb3          	add	t6,t6,t3
    8000113c:	01ce8eb3          	add	t4,t4,t3
    80001140:	01c282b3          	add	t0,t0,t3
    80001144:	fb1f6ce3          	bltu	t5,a7,800010fc <mm_naive+0xb4>
    80001148:	02c373d3          	fadd.d	ft7,ft6,fa2
    8000114c:	00088313          	mv	t1,a7
    80001150:	02d3f753          	fadd.d	fa4,ft7,fa3
    80001154:	02c37c63          	bleu	a2,t1,8000118c <mm_naive+0x144>
    80001158:	02680f33          	mul	t5,a6,t1
    8000115c:	006a8333          	add	t1,s5,t1
    80001160:	00331393          	slli	t2,t1,0x3
    80001164:	007682b3          	add	t0,a3,t2
    80001168:	014f0fb3          	add	t6,t5,s4
    8000116c:	003f9e93          	slli	t4,t6,0x3
    80001170:	01d78f33          	add	t5,a5,t4
    80001174:	0002b807          	fld	fa6,0(t0)
    80001178:	000f3887          	fld	fa7,0(t5)
    8000117c:	00828293          	addi	t0,t0,8
    80001180:	008f0f33          	add	t5,t5,s0
    80001184:	7b1877c3          	fmadd.d	fa5,fa6,fa7,fa5
    80001188:	fe5496e3          	bne	s1,t0,80001174 <mm_naive+0x12c>
    8000118c:	02e7fe53          	fadd.d	ft8,fa5,fa4
    80001190:	00898993          	addi	s3,s3,8
    80001194:	001a0a13          	addi	s4,s4,1
    80001198:	00890913          	addi	s2,s2,8
    8000119c:	ffc9bc27          	fsd	ft8,-8(s3)
    800011a0:	f34598e3          	bne	a1,s4,800010d0 <mm_naive+0x88>
    800011a4:	001c8c93          	addi	s9,s9,1
    800011a8:	01bc0c33          	add	s8,s8,s11
    800011ac:	01ab0b33          	add	s6,s6,s10
    800011b0:	01a484b3          	add	s1,s1,s10
    800011b4:	00ea8ab3          	add	s5,s5,a4
    800011b8:	f19514e3          	bne	a0,s9,800010c0 <mm_naive+0x78>
    800011bc:	06813403          	ld	s0,104(sp)
    800011c0:	06013483          	ld	s1,96(sp)
    800011c4:	05813903          	ld	s2,88(sp)
    800011c8:	05013983          	ld	s3,80(sp)
    800011cc:	04813a03          	ld	s4,72(sp)
    800011d0:	04013a83          	ld	s5,64(sp)
    800011d4:	03813b03          	ld	s6,56(sp)
    800011d8:	03013b83          	ld	s7,48(sp)
    800011dc:	02813c03          	ld	s8,40(sp)
    800011e0:	02013c83          	ld	s9,32(sp)
    800011e4:	01813d03          	ld	s10,24(sp)
    800011e8:	01013d83          	ld	s11,16(sp)
    800011ec:	07010113          	addi	sp,sp,112
    800011f0:	00008067          	ret
    800011f4:	f2000753          	fmv.d.x	fa4,zero
    800011f8:	00000313          	li	t1,0
    800011fc:	f59ff06f          	j	80001154 <mm_naive+0x10c>
    80001200:	00008067          	ret

0000000080001204 <mm_cb>:
    80001204:	d8010113          	addi	sp,sp,-640
    80001208:	26113c23          	sd	ra,632(sp)
    8000120c:	26813823          	sd	s0,624(sp)
    80001210:	26913423          	sd	s1,616(sp)
    80001214:	28010413          	addi	s0,sp,640
    80001218:	27213023          	sd	s2,608(sp)
    8000121c:	25313c23          	sd	s3,600(sp)
    80001220:	25413823          	sd	s4,592(sp)
    80001224:	25513423          	sd	s5,584(sp)
    80001228:	25613023          	sd	s6,576(sp)
    8000122c:	23713c23          	sd	s7,568(sp)
    80001230:	23813823          	sd	s8,560(sp)
    80001234:	23913423          	sd	s9,552(sp)
    80001238:	23a13023          	sd	s10,544(sp)
    8000123c:	21b13c23          	sd	s11,536(sp)
    80001240:	20813427          	fsd	fs0,520(sp)
    80001244:	20913027          	fsd	fs1,512(sp)
    80001248:	1f213c27          	fsd	fs2,504(sp)
    8000124c:	1f313827          	fsd	fs3,496(sp)
    80001250:	1f413427          	fsd	fs4,488(sp)
    80001254:	1f513027          	fsd	fs5,480(sp)
    80001258:	1d613c27          	fsd	fs6,472(sp)
    8000125c:	1d713827          	fsd	fs7,464(sp)
    80001260:	1d813427          	fsd	fs8,456(sp)
    80001264:	1d913027          	fsd	fs9,448(sp)
    80001268:	1ba13c27          	fsd	fs10,440(sp)
    8000126c:	1bb13827          	fsd	fs11,432(sp)
    80001270:	00060f93          	mv	t6,a2
    80001274:	f0c43023          	sd	a2,-256(s0)
    80001278:	01900613          	li	a2,25
    8000127c:	02c5de33          	divu	t3,a1,a2
    80001280:	01800313          	li	t1,24
    80001284:	e6a43823          	sd	a0,-400(s0)
    80001288:	f0e43c23          	sd	a4,-232(s0)
    8000128c:	00070e93          	mv	t4,a4
    80001290:	eab43c23          	sd	a1,-328(s0)
    80001294:	ded43c23          	sd	a3,-520(s0)
    80001298:	000020b7          	lui	ra,0x2
    8000129c:	fff08293          	addi	t0,ra,-1 # 1fff <_tbss_end+0x1f7b>
    800012a0:	ffffe5b7          	lui	a1,0xffffe
    800012a4:	026fd733          	divu	a4,t6,t1
    800012a8:	edc43823          	sd	t3,-304(s0)
    800012ac:	e6f43423          	sd	a5,-408(s0)
    800012b0:	001e1793          	slli	a5,t3,0x1
    800012b4:	01c783b3          	add	t2,a5,t3
    800012b8:	eb143023          	sd	a7,-352(s0)
    800012bc:	00339493          	slli	s1,t2,0x3
    800012c0:	f3043023          	sd	a6,-224(s0)
    800012c4:	01c48833          	add	a6,s1,t3
    800012c8:	ef043823          	sd	a6,-272(s0)
    800012cc:	02655533          	divu	a0,a0,t1
    800012d0:	00171893          	slli	a7,a4,0x1
    800012d4:	00e88933          	add	s2,a7,a4
    800012d8:	00391493          	slli	s1,s2,0x3
    800012dc:	e2e43c23          	sd	a4,-456(s0)
    800012e0:	f0943823          	sd	s1,-240(s0)
    800012e4:	00151993          	slli	s3,a0,0x1
    800012e8:	00a98a33          	add	s4,s3,a0
    800012ec:	003a1a93          	slli	s5,s4,0x3
    800012f0:	029a8b33          	mul	s6,s5,s1
    800012f4:	ef543c23          	sd	s5,-264(s0)
    800012f8:	02980bb3          	mul	s7,a6,s1
    800012fc:	400b0c13          	addi	s8,s6,1024
    80001300:	003c1c93          	slli	s9,s8,0x3
    80001304:	010c8d13          	addi	s10,s9,16
    80001308:	41a10133          	sub	sp,sp,s10
    8000130c:	01010d93          	addi	s11,sp,16
    80001310:	005d8f33          	add	t5,s11,t0
    80001314:	00bf7333          	and	t1,t5,a1
    80001318:	e2643823          	sd	t1,-464(s0)
    8000131c:	030a8fb3          	mul	t6,s5,a6
    80001320:	400b8613          	addi	a2,s7,1024
    80001324:	00361e13          	slli	t3,a2,0x3
    80001328:	010e0093          	addi	ra,t3,16
    8000132c:	40110133          	sub	sp,sp,ra
    80001330:	01010713          	addi	a4,sp,16
    80001334:	005707b3          	add	a5,a4,t0
    80001338:	00b7f3b3          	and	t2,a5,a1
    8000133c:	e2743423          	sd	t2,-472(s0)
    80001340:	400f8813          	addi	a6,t6,1024
    80001344:	00381513          	slli	a0,a6,0x3
    80001348:	01050893          	addi	a7,a0,16
    8000134c:	41110133          	sub	sp,sp,a7
    80001350:	01010913          	addi	s2,sp,16
    80001354:	005902b3          	add	t0,s2,t0
    80001358:	00b2f5b3          	and	a1,t0,a1
    8000135c:	eab43823          	sd	a1,-336(s0)
    80001360:	100a8063          	beqz	s5,80001460 <mm_cb+0x25c>
    80001364:	001e9813          	slli	a6,t4,0x1
    80001368:	01d809b3          	add	s3,a6,t4
    8000136c:	003e9513          	slli	a0,t4,0x3
    80001370:	00001eb7          	lui	t4,0x1
    80001374:	00699f93          	slli	t6,s3,0x6
    80001378:	00068f13          	mv	t5,a3
    8000137c:	e4a43c23          	sd	a0,-424(s0)
    80001380:	00000313          	li	t1,0
    80001384:	01800393          	li	t2,24
    80001388:	200e8593          	addi	a1,t4,512 # 1200 <_tbss_end+0x117c>
    8000138c:	0a048663          	beqz	s1,80001438 <mm_cb+0x234>
    80001390:	02735a33          	divu	s4,t1,t2
    80001394:	e3843a83          	ld	s5,-456(s0)
    80001398:	000f0293          	mv	t0,t5
    8000139c:	00000e13          	li	t3,0
    800013a0:	035a08b3          	mul	a7,s4,s5
    800013a4:	e3043d83          	ld	s11,-464(s0)
    800013a8:	00028613          	mv	a2,t0
    800013ac:	027e5b33          	divu	s6,t3,t2
    800013b0:	011b0bb3          	add	s7,s6,a7
    800013b4:	003b9c13          	slli	s8,s7,0x3
    800013b8:	017c0cb3          	add	s9,s8,s7
    800013bc:	009c9d13          	slli	s10,s9,0x9
    800013c0:	01ad86b3          	add	a3,s11,s10
    800013c4:	00b68933          	add	s2,a3,a1
    800013c8:	0c060093          	addi	ra,a2,192
    800013cc:	00068713          	mv	a4,a3
    800013d0:	00060793          	mv	a5,a2
    800013d4:	0007b087          	fld	ft1,0(a5)
    800013d8:	0087b007          	fld	ft0,8(a5)
    800013dc:	0107b507          	fld	fa0,16(a5)
    800013e0:	0187b587          	fld	fa1,24(a5)
    800013e4:	0207b607          	fld	fa2,32(a5)
    800013e8:	0287b687          	fld	fa3,40(a5)
    800013ec:	0307b707          	fld	fa4,48(a5)
    800013f0:	0387b787          	fld	fa5,56(a5)
    800013f4:	00173027          	fsd	ft1,0(a4)
    800013f8:	00073427          	fsd	ft0,8(a4)
    800013fc:	00a73827          	fsd	fa0,16(a4)
    80001400:	00b73c27          	fsd	fa1,24(a4)
    80001404:	02c73027          	fsd	fa2,32(a4)
    80001408:	02d73427          	fsd	fa3,40(a4)
    8000140c:	02e73827          	fsd	fa4,48(a4)
    80001410:	02f73c27          	fsd	fa5,56(a4)
    80001414:	04078793          	addi	a5,a5,64
    80001418:	04070713          	addi	a4,a4,64
    8000141c:	faf09ce3          	bne	ra,a5,800013d4 <mm_cb+0x1d0>
    80001420:	0c068693          	addi	a3,a3,192
    80001424:	00a60633          	add	a2,a2,a0
    80001428:	fad910e3          	bne	s2,a3,800013c8 <mm_cb+0x1c4>
    8000142c:	018e0e13          	addi	t3,t3,24
    80001430:	0c028293          	addi	t0,t0,192
    80001434:	f69e68e3          	bltu	t3,s1,800013a4 <mm_cb+0x1a0>
    80001438:	ef843983          	ld	s3,-264(s0)
    8000143c:	01830313          	addi	t1,t1,24
    80001440:	01ff0f33          	add	t5,t5,t6
    80001444:	f53364e3          	bltu	t1,s3,8000138c <mm_cb+0x188>
    80001448:	f1043e83          	ld	t4,-240(s0)
    8000144c:	000e9e63          	bnez	t4,80001468 <mm_cb+0x264>
    80001450:	f2043a03          	ld	s4,-224(s0)
    80001454:	001a1a93          	slli	s5,s4,0x1
    80001458:	003a1b93          	slli	s7,s4,0x3
    8000145c:	1140006f          	j	80001570 <mm_cb+0x36c>
    80001460:	f1043683          	ld	a3,-240(s0)
    80001464:	0c0684e3          	beqz	a3,80001d2c <mm_cb+0xb28>
    80001468:	f2043b03          	ld	s6,-224(s0)
    8000146c:	e6843d03          	ld	s10,-408(s0)
    80001470:	ef043903          	ld	s2,-272(s0)
    80001474:	001b1a93          	slli	s5,s6,0x1
    80001478:	016a8c33          	add	s8,s5,s6
    8000147c:	00001737          	lui	a4,0x1
    80001480:	006c1c93          	slli	s9,s8,0x6
    80001484:	0c0d0d93          	addi	s11,s10,192
    80001488:	003b1b93          	slli	s7,s6,0x3
    8000148c:	00000093          	li	ra,0
    80001490:	01800493          	li	s1,24
    80001494:	01900513          	li	a0,25
    80001498:	2c070893          	addi	a7,a4,704 # 12c0 <_tbss_end+0x123c>
    8000149c:	0a090463          	beqz	s2,80001544 <mm_cb+0x340>
    800014a0:	0290d3b3          	divu	t2,ra,s1
    800014a4:	ed043783          	ld	a5,-304(s0)
    800014a8:	000d8e13          	mv	t3,s11
    800014ac:	00000813          	li	a6,0
    800014b0:	02f385b3          	mul	a1,t2,a5
    800014b4:	e2843303          	ld	t1,-472(s0)
    800014b8:	000e0693          	mv	a3,t3
    800014bc:	02a85fb3          	divu	t6,a6,a0
    800014c0:	00bf8633          	add	a2,t6,a1
    800014c4:	031602b3          	mul	t0,a2,a7
    800014c8:	00530a33          	add	s4,t1,t0
    800014cc:	011a0eb3          	add	t4,s4,a7
    800014d0:	f4068f13          	addi	t5,a3,-192
    800014d4:	000a0993          	mv	s3,s4
    800014d8:	000f3107          	fld	ft2,0(t5)
    800014dc:	008f3187          	fld	ft3,8(t5)
    800014e0:	010f3207          	fld	ft4,16(t5)
    800014e4:	018f3287          	fld	ft5,24(t5)
    800014e8:	020f3307          	fld	ft6,32(t5)
    800014ec:	028f3387          	fld	ft7,40(t5)
    800014f0:	030f3407          	fld	fs0,48(t5)
    800014f4:	038f3487          	fld	fs1,56(t5)
    800014f8:	0029b027          	fsd	ft2,0(s3)
    800014fc:	0039b427          	fsd	ft3,8(s3)
    80001500:	0049b827          	fsd	ft4,16(s3)
    80001504:	0059bc27          	fsd	ft5,24(s3)
    80001508:	0269b027          	fsd	ft6,32(s3)
    8000150c:	0279b427          	fsd	ft7,40(s3)
    80001510:	0289b827          	fsd	fs0,48(s3)
    80001514:	0299bc27          	fsd	fs1,56(s3)
    80001518:	040f0f13          	addi	t5,t5,64
    8000151c:	04098993          	addi	s3,s3,64
    80001520:	fbe69ce3          	bne	a3,t5,800014d8 <mm_cb+0x2d4>
    80001524:	0006b807          	fld	fa6,0(a3)
    80001528:	0c8a0a13          	addi	s4,s4,200
    8000152c:	017686b3          	add	a3,a3,s7
    80001530:	ff0a3c27          	fsd	fa6,-8(s4)
    80001534:	f94e9ee3          	bne	t4,s4,800014d0 <mm_cb+0x2cc>
    80001538:	01980813          	addi	a6,a6,25
    8000153c:	0c8e0e13          	addi	t3,t3,200
    80001540:	f7286ae3          	bltu	a6,s2,800014b4 <mm_cb+0x2b0>
    80001544:	f1043b03          	ld	s6,-240(s0)
    80001548:	01808093          	addi	ra,ra,24
    8000154c:	019d8db3          	add	s11,s11,s9
    80001550:	f560e6e3          	bltu	ra,s6,8000149c <mm_cb+0x298>
    80001554:	ef843c03          	ld	s8,-264(s0)
    80001558:	000c1463          	bnez	s8,80001560 <mm_cb+0x35c>
    8000155c:	1ac0106f          	j	80002708 <mm_cb+0x1504>
    80001560:	f1843c83          	ld	s9,-232(s0)
    80001564:	003c9d13          	slli	s10,s9,0x3
    80001568:	001c9813          	slli	a6,s9,0x1
    8000156c:	e5a43c23          	sd	s10,-424(s0)
    80001570:	00043d83          	ld	s11,0(s0)
    80001574:	00043483          	ld	s1,0(s0)
    80001578:	ea043883          	ld	a7,-352(s0)
    8000157c:	001d9093          	slli	ra,s11,0x1
    80001580:	00908533          	add	a0,ra,s1
    80001584:	ef043e03          	ld	t3,-272(s0)
    80001588:	00651713          	slli	a4,a0,0x6
    8000158c:	00349993          	slli	s3,s1,0x3
    80001590:	000013b7          	lui	t2,0x1
    80001594:	dee43823          	sd	a4,-528(s0)
    80001598:	0c088f13          	addi	t5,a7,192
    8000159c:	dd343823          	sd	s3,-560(s0)
    800015a0:	00000593          	li	a1,0
    800015a4:	01800a13          	li	s4,24
    800015a8:	01900293          	li	t0,25
    800015ac:	2c038313          	addi	t1,t2,704 # 12c0 <_tbss_end+0x123c>
    800015b0:	0a0e0463          	beqz	t3,80001658 <mm_cb+0x454>
    800015b4:	0345d633          	divu	a2,a1,s4
    800015b8:	ed043783          	ld	a5,-304(s0)
    800015bc:	000f0f93          	mv	t6,t5
    800015c0:	00000e93          	li	t4,0
    800015c4:	02f604b3          	mul	s1,a2,a5
    800015c8:	eb043d03          	ld	s10,-336(s0)
    800015cc:	000f8693          	mv	a3,t6
    800015d0:	025edb33          	divu	s6,t4,t0
    800015d4:	009b0c33          	add	s8,s6,s1
    800015d8:	026c0cb3          	mul	s9,s8,t1
    800015dc:	019d0733          	add	a4,s10,s9
    800015e0:	00670533          	add	a0,a4,t1
    800015e4:	f4068d93          	addi	s11,a3,-192
    800015e8:	00070093          	mv	ra,a4
    800015ec:	000db887          	fld	fa7,0(s11)
    800015f0:	008db907          	fld	fs2,8(s11)
    800015f4:	010db987          	fld	fs3,16(s11)
    800015f8:	018dba07          	fld	fs4,24(s11)
    800015fc:	020dba87          	fld	fs5,32(s11)
    80001600:	028dbb07          	fld	fs6,40(s11)
    80001604:	030dbb87          	fld	fs7,48(s11)
    80001608:	038dbc07          	fld	fs8,56(s11)
    8000160c:	0110b027          	fsd	fa7,0(ra)
    80001610:	0120b427          	fsd	fs2,8(ra)
    80001614:	0130b827          	fsd	fs3,16(ra)
    80001618:	0140bc27          	fsd	fs4,24(ra)
    8000161c:	0350b027          	fsd	fs5,32(ra)
    80001620:	0360b427          	fsd	fs6,40(ra)
    80001624:	0370b827          	fsd	fs7,48(ra)
    80001628:	0380bc27          	fsd	fs8,56(ra)
    8000162c:	040d8d93          	addi	s11,s11,64
    80001630:	04008093          	addi	ra,ra,64
    80001634:	fbb69ce3          	bne	a3,s11,800015ec <mm_cb+0x3e8>
    80001638:	0006bc87          	fld	fs9,0(a3)
    8000163c:	0c870713          	addi	a4,a4,200
    80001640:	013686b3          	add	a3,a3,s3
    80001644:	ff973c27          	fsd	fs9,-8(a4)
    80001648:	f8e51ee3          	bne	a0,a4,800015e4 <mm_cb+0x3e0>
    8000164c:	019e8e93          	addi	t4,t4,25
    80001650:	0c8f8f93          	addi	t6,t6,200
    80001654:	f7ceeae3          	bltu	t4,t3,800015c8 <mm_cb+0x3c4>
    80001658:	df043883          	ld	a7,-528(s0)
    8000165c:	ef843903          	ld	s2,-264(s0)
    80001660:	01858593          	addi	a1,a1,24 # ffffffffffffe018 <__global_pointer$+0xffffffff7fff8d30>
    80001664:	011f0f33          	add	t5,t5,a7
    80001668:	f525e4e3          	bltu	a1,s2,800015b0 <mm_cb+0x3ac>
    8000166c:	f0043983          	ld	s3,-256(s0)
    80001670:	f2043303          	ld	t1,-224(s0)
    80001674:	01800f13          	li	t5,24
    80001678:	03e9f2b3          	remu	t0,s3,t5
    8000167c:	f1043083          	ld	ra,-240(s0)
    80001680:	006a8e33          	add	t3,s5,t1
    80001684:	f1843d83          	ld	s11,-232(s0)
    80001688:	00231a93          	slli	s5,t1,0x2
    8000168c:	006a87b3          	add	a5,s5,t1
    80001690:	40100533          	neg	a0,ra
    80001694:	df843903          	ld	s2,-520(s0)
    80001698:	00379a93          	slli	s5,a5,0x3
    8000169c:	00351793          	slli	a5,a0,0x3
    800016a0:	eb843503          	ld	a0,-328(s0)
    800016a4:	01b80833          	add	a6,a6,s11
    800016a8:	00309493          	slli	s1,ra,0x3
    800016ac:	00990f33          	add	t5,s2,s1
    800016b0:	00681d13          	slli	s10,a6,0x6
    800016b4:	01900493          	li	s1,25
    800016b8:	e7a43023          	sd	s10,-416(s0)
    800016bc:	ef043583          	ld	a1,-272(s0)
    800016c0:	ea043683          	ld	a3,-352(s0)
    800016c4:	00500393          	li	t2,5
    800016c8:	00359c13          	slli	s8,a1,0x3
    800016cc:	01868fb3          	add	t6,a3,s8
    800016d0:	00600693          	li	a3,6
    800016d4:	e9f43023          	sd	t6,-384(s0)
    800016d8:	004e1c93          	slli	s9,t3,0x4
    800016dc:	daf43423          	sd	a5,-600(s0)
    800016e0:	003e1a13          	slli	s4,t3,0x3
    800016e4:	00531b13          	slli	s6,t1,0x5
    800016e8:	00431713          	slli	a4,t1,0x4
    800016ec:	006e1313          	slli	t1,t3,0x6
    800016f0:	e6843e03          	ld	t3,-408(s0)
    800016f4:	005d9993          	slli	s3,s11,0x5
    800016f8:	00043d83          	ld	s11,0(s0)
    800016fc:	e7343c23          	sd	s3,-392(s0)
    80001700:	018e05b3          	add	a1,t3,s8
    80001704:	00001637          	lui	a2,0x1
    80001708:	da643823          	sd	t1,-592(s0)
    8000170c:	ede43423          	sd	t5,-312(s0)
    80001710:	dcb43023          	sd	a1,-576(s0)
    80001714:	005d9813          	slli	a6,s11,0x5
    80001718:	2c060c13          	addi	s8,a2,704 # 12c0 <_tbss_end+0x123c>
    8000171c:	38860613          	addi	a2,a2,904
    80001720:	e1043023          	sd	a6,-512(s0)
    80001724:	e8043c23          	sd	zero,-360(s0)
    80001728:	dec43423          	sd	a2,-536(s0)
    8000172c:	02957d33          	remu	s10,a0,s1
    80001730:	00329e93          	slli	t4,t0,0x3
    80001734:	e8543823          	sd	t0,-368(s0)
    80001738:	e3d43023          	sd	t4,-480(s0)
    8000173c:	02d2d2b3          	divu	t0,t0,a3
    80001740:	dda43c23          	sd	s10,-552(s0)
    80001744:	027d5fb3          	divu	t6,s10,t2
    80001748:	00129893          	slli	a7,t0,0x1
    8000174c:	00588933          	add	s2,a7,t0
    80001750:	00491f13          	slli	t5,s2,0x4
    80001754:	dbe43c23          	sd	t5,-584(s0)
    80001758:	027d73b3          	remu	t2,s10,t2
    8000175c:	002f9993          	slli	s3,t6,0x2
    80001760:	01f98333          	add	t1,s3,t6
    80001764:	00331593          	slli	a1,t1,0x3
    80001768:	000b8993          	mv	s3,s7
    8000176c:	f0643423          	sd	t1,-248(s0)
    80001770:	e8b43423          	sd	a1,-376(s0)
    80001774:	021b80b3          	mul	ra,s7,ra
    80001778:	e0743823          	sd	t2,-496(s0)
    8000177c:	000b0b93          	mv	s7,s6
    80001780:	000a0b13          	mv	s6,s4
    80001784:	000c8a13          	mv	s4,s9
    80001788:	039287b3          	mul	a5,t0,s9
    8000178c:	001e0e33          	add	t3,t3,ra
    80001790:	ddc43423          	sd	t3,-568(s0)
    80001794:	00070c93          	mv	s9,a4
    80001798:	e0f43c23          	sd	a5,-488(s0)
    8000179c:	ef043703          	ld	a4,-272(s0)
    800017a0:	00071463          	bnez	a4,800017a8 <mm_cb+0x5a4>
    800017a4:	3e10106f          	j	80003384 <mm_cb+0x2180>
    800017a8:	e9843d03          	ld	s10,-360(s0)
    800017ac:	01800513          	li	a0,24
    800017b0:	e3843903          	ld	s2,-456(s0)
    800017b4:	02ad5eb3          	divu	t4,s10,a0
    800017b8:	ed043083          	ld	ra,-304(s0)
    800017bc:	e6043283          	ld	t0,-416(s0)
    800017c0:	ec843683          	ld	a3,-312(s0)
    800017c4:	dc843883          	ld	a7,-568(s0)
    800017c8:	df443023          	sd	s4,-544(s0)
    800017cc:	00d28fb3          	add	t6,t0,a3
    800017d0:	e5f43823          	sd	t6,-432(s0)
    800017d4:	ed143023          	sd	a7,-320(s0)
    800017d8:	ea043423          	sd	zero,-344(s0)
    800017dc:	00098a13          	mv	s4,s3
    800017e0:	032e8f33          	mul	t5,t4,s2
    800017e4:	021e8333          	mul	t1,t4,ra
    800017e8:	f3e43423          	sd	t5,-216(s0)
    800017ec:	e4643023          	sd	t1,-448(s0)
    800017f0:	f1043983          	ld	s3,-240(s0)
    800017f4:	4c098063          	beqz	s3,80001cb4 <mm_cb+0xab0>
    800017f8:	ea843583          	ld	a1,-344(s0)
    800017fc:	01900793          	li	a5,25
    80001800:	e4043383          	ld	t2,-448(s0)
    80001804:	02f5ddb3          	divu	s11,a1,a5
    80001808:	eb043603          	ld	a2,-336(s0)
    8000180c:	de843e83          	ld	t4,-536(s0)
    80001810:	e5943423          	sd	s9,-440(s0)
    80001814:	e1743423          	sd	s7,-504(s0)
    80001818:	db643023          	sd	s6,-608(s0)
    8000181c:	e2843c83          	ld	s9,-472(s0)
    80001820:	e3043b83          	ld	s7,-464(s0)
    80001824:	ed043b03          	ld	s6,-304(s0)
    80001828:	00000e13          	li	t3,0
    8000182c:	d9543c23          	sd	s5,-616(s0)
    80001830:	d9443823          	sd	s4,-624(s0)
    80001834:	007d8733          	add	a4,s11,t2
    80001838:	03870833          	mul	a6,a4,s8
    8000183c:	efb43423          	sd	s11,-280(s0)
    80001840:	010604b3          	add	s1,a2,a6
    80001844:	0c848d13          	addi	s10,s1,200
    80001848:	01848533          	add	a0,s1,s8
    8000184c:	eda43c23          	sd	s10,-296(s0)
    80001850:	eea43023          	sd	a0,-288(s0)
    80001854:	01d489b3          	add	s3,s1,t4
    80001858:	000e0d13          	mv	s10,t3
    8000185c:	01800a93          	li	s5,24
    80001860:	035d52b3          	divu	t0,s10,s5
    80001864:	ee843303          	ld	t1,-280(s0)
    80001868:	f2843f83          	ld	t6,-216(s0)
    8000186c:	ed843a83          	ld	s5,-296(s0)
    80001870:	036286b3          	mul	a3,t0,s6
    80001874:	005f88b3          	add	a7,t6,t0
    80001878:	00389913          	slli	s2,a7,0x3
    8000187c:	01190f33          	add	t5,s2,a7
    80001880:	009f1093          	slli	ra,t5,0x9
    80001884:	001b8933          	add	s2,s7,ra
    80001888:	00090d93          	mv	s11,s2
    8000188c:	00668a33          	add	s4,a3,t1
    80001890:	038a05b3          	mul	a1,s4,s8
    80001894:	00bc84b3          	add	s1,s9,a1
    80001898:	0c848a13          	addi	s4,s1,200
    8000189c:	f38a8e13          	addi	t3,s5,-200
    800018a0:	00048393          	mv	t2,s1
    800018a4:	000e3c87          	fld	fs9,0(t3)
    800018a8:	008e3a87          	fld	fs5,8(t3)
    800018ac:	010e3a07          	fld	fs4,16(t3)
    800018b0:	018e3987          	fld	fs3,24(t3)
    800018b4:	020e3887          	fld	fa7,32(t3)
    800018b8:	0c8e3b87          	fld	fs7,200(t3)
    800018bc:	0d0e3907          	fld	fs2,208(t3)
    800018c0:	0d8e3487          	fld	fs1,216(t3)
    800018c4:	0e0e3407          	fld	fs0,224(t3)
    800018c8:	0e8e3587          	fld	fa1,232(t3)
    800018cc:	190e3c07          	fld	fs8,400(t3)
    800018d0:	198e3f87          	fld	ft11,408(t3)
    800018d4:	1a0e3f07          	fld	ft10,416(t3)
    800018d8:	1a8e3e87          	fld	ft9,424(t3)
    800018dc:	1b0e3607          	fld	fa2,432(t3)
    800018e0:	258e3387          	fld	ft7,600(t3)
    800018e4:	260e3307          	fld	ft6,608(t3)
    800018e8:	268e3287          	fld	ft5,616(t3)
    800018ec:	270e3187          	fld	ft3,624(t3)
    800018f0:	278e3787          	fld	fa5,632(t3)
    800018f4:	00038793          	mv	a5,t2
    800018f8:	01838833          	add	a6,t2,s8
    800018fc:	000d8713          	mv	a4,s11
    80001900:	00073d07          	fld	fs10,0(a4)
    80001904:	0c073d87          	fld	fs11,192(a4)
    80001908:	18073e07          	fld	ft8,384(a4)
    8000190c:	24073807          	fld	fa6,576(a4)
    80001910:	0007b087          	fld	ft1,0(a5)
    80001914:	0087b107          	fld	ft2,8(a5)
    80001918:	0107b207          	fld	ft4,16(a5)
    8000191c:	0207b707          	fld	fa4,32(a5)
    80001920:	0187b007          	fld	ft0,24(a5)
    80001924:	ca1d7b43          	fmadd.d	fs6,fs10,ft1,fs9
    80001928:	5bb776c3          	fmadd.d	fa3,fa4,fs11,fa1
    8000192c:	8aed7543          	fmadd.d	fa0,fs10,fa4,fa7
    80001930:	3b00fcc3          	fmadd.d	fs9,ft1,fa6,ft7
    80001934:	aa2d7ac3          	fmadd.d	fs5,fs10,ft2,fs5
    80001938:	a24d7a43          	fmadd.d	fs4,fs10,ft4,fs4
    8000193c:	9a0d79c3          	fmadd.d	fs3,fs10,ft0,fs3
    80001940:	bbb0fbc3          	fmadd.d	fs7,ft1,fs11,fs7
    80001944:	33017d43          	fmadd.d	fs10,ft2,fa6,ft6
    80001948:	93b17943          	fmadd.d	fs2,ft2,fs11,fs2
    8000194c:	4bb274c3          	fmadd.d	fs1,ft4,fs11,fs1
    80001950:	43b07443          	fmadd.d	fs0,ft0,fs11,fs0
    80001954:	c3c0fc43          	fmadd.d	fs8,ft1,ft8,fs8
    80001958:	2b027dc3          	fmadd.d	fs11,ft4,fa6,ft5
    8000195c:	fbc17fc3          	fmadd.d	ft11,ft2,ft8,ft11
    80001960:	f3c27f43          	fmadd.d	ft10,ft4,ft8,ft10
    80001964:	ebc07ec3          	fmadd.d	ft9,ft0,ft8,ft9
    80001968:	63c77643          	fmadd.d	fa2,fa4,ft8,fa2
    8000196c:	1b007043          	fmadd.d	ft0,ft0,fa6,ft3
    80001970:	7b077843          	fmadd.d	fa6,fa4,fa6,fa5
    80001974:	00873887          	fld	fa7,8(a4)
    80001978:	18873e07          	fld	ft8,392(a4)
    8000197c:	24873787          	fld	fa5,584(a4)
    80001980:	0c873587          	fld	fa1,200(a4)
    80001984:	0c87b387          	fld	ft7,200(a5)
    80001988:	0d07b307          	fld	ft6,208(a5)
    8000198c:	0d87b287          	fld	ft5,216(a5)
    80001990:	0e07b187          	fld	ft3,224(a5)
    80001994:	0e87b707          	fld	fa4,232(a5)
    80001998:	caf3f0c3          	fmadd.d	ft1,ft7,fa5,fs9
    8000199c:	d2f37143          	fmadd.d	ft2,ft6,fa5,fs10
    800019a0:	daf2f243          	fmadd.d	ft4,ft5,fa5,fs11
    800019a4:	02f1fd43          	fmadd.d	fs10,ft3,fa5,ft0
    800019a8:	82f77dc3          	fmadd.d	fs11,fa4,fa5,fa6
    800019ac:	b278fb43          	fmadd.d	fs6,fa7,ft7,fs6
    800019b0:	aa68fac3          	fmadd.d	fs5,fa7,ft6,fs5
    800019b4:	a258fa43          	fmadd.d	fs4,fa7,ft5,fs4
    800019b8:	9a38f9c3          	fmadd.d	fs3,fa7,ft3,fs3
    800019bc:	52e8f543          	fmadd.d	fa0,fa7,fa4,fa0
    800019c0:	bab3fbc3          	fmadd.d	fs7,ft7,fa1,fs7
    800019c4:	92b37943          	fmadd.d	fs2,ft6,fa1,fs2
    800019c8:	4ab2f4c3          	fmadd.d	fs1,ft5,fa1,fs1
    800019cc:	42b1f443          	fmadd.d	fs0,ft3,fa1,fs0
    800019d0:	c3c3fc43          	fmadd.d	fs8,ft7,ft8,fs8
    800019d4:	6ab775c3          	fmadd.d	fa1,fa4,fa1,fa3
    800019d8:	fbc37fc3          	fmadd.d	ft11,ft6,ft8,ft11
    800019dc:	f3c2ff43          	fmadd.d	ft10,ft5,ft8,ft10
    800019e0:	ebc1fec3          	fmadd.d	ft9,ft3,ft8,ft9
    800019e4:	63c77643          	fmadd.d	fa2,fa4,ft8,fa2
    800019e8:	01073007          	fld	ft0,16(a4)
    800019ec:	0d073807          	fld	fa6,208(a4)
    800019f0:	25073787          	fld	fa5,592(a4)
    800019f4:	19073e07          	fld	ft8,400(a4)
    800019f8:	1907b387          	fld	ft7,400(a5)
    800019fc:	1987b307          	fld	ft6,408(a5)
    80001a00:	1a07b287          	fld	ft5,416(a5)
    80001a04:	1a87bc87          	fld	fs9,424(a5)
    80001a08:	1b07b687          	fld	fa3,432(a5)
    80001a0c:	b2707b43          	fmadd.d	fs6,ft0,ft7,fs6
    80001a10:	d2fcfd43          	fmadd.d	fs10,fs9,fa5,fs10
    80001a14:	52d078c3          	fmadd.d	fa7,ft0,fa3,fa0
    80001a18:	aa607ac3          	fmadd.d	fs5,ft0,ft6,fs5
    80001a1c:	a2507a43          	fmadd.d	fs4,ft0,ft5,fs4
    80001a20:	9b9079c3          	fmadd.d	fs3,ft0,fs9,fs3
    80001a24:	bb03fbc3          	fmadd.d	fs7,ft7,fa6,fs7
    80001a28:	93037943          	fmadd.d	fs2,ft6,fa6,fs2
    80001a2c:	4b02f4c3          	fmadd.d	fs1,ft5,fa6,fs1
    80001a30:	430cf443          	fmadd.d	fs0,fs9,fa6,fs0
    80001a34:	5b06f5c3          	fmadd.d	fa1,fa3,fa6,fa1
    80001a38:	c3c3fc43          	fmadd.d	fs8,ft7,ft8,fs8
    80001a3c:	fbc37fc3          	fmadd.d	ft11,ft6,ft8,ft11
    80001a40:	f3c2ff43          	fmadd.d	ft10,ft5,ft8,ft10
    80001a44:	ebccfec3          	fmadd.d	ft9,fs9,ft8,ft9
    80001a48:	63c6f643          	fmadd.d	fa2,fa3,ft8,fa2
    80001a4c:	0af3f0c3          	fmadd.d	ft1,ft7,fa5,ft1
    80001a50:	12f37143          	fmadd.d	ft2,ft6,fa5,ft2
    80001a54:	22f2f243          	fmadd.d	ft4,ft5,fa5,ft4
    80001a58:	daf6fdc3          	fmadd.d	fs11,fa3,fa5,fs11
    80001a5c:	01873507          	fld	fa0,24(a4)
    80001a60:	2587b007          	fld	ft0,600(a5)
    80001a64:	2607b787          	fld	fa5,608(a5)
    80001a68:	2687b387          	fld	ft7,616(a5)
    80001a6c:	2707b187          	fld	ft3,624(a5)
    80001a70:	2787be07          	fld	ft8,632(a5)
    80001a74:	0d873307          	fld	ft6,216(a4)
    80001a78:	19873707          	fld	fa4,408(a4)
    80001a7c:	25873807          	fld	fa6,600(a4)
    80001a80:	b2057b43          	fmadd.d	fs6,fa0,ft0,fs6
    80001a84:	aaf57ac3          	fmadd.d	fs5,fa0,fa5,fs5
    80001a88:	0b0070c3          	fmadd.d	ft1,ft0,fa6,ft1
    80001a8c:	1307f143          	fmadd.d	ft2,fa5,fa6,ft2
    80001a90:	2303f2c3          	fmadd.d	ft5,ft7,fa6,ft4
    80001a94:	db0e7dc3          	fmadd.d	fs11,ft8,fa6,fs11
    80001a98:	d301f243          	fmadd.d	ft4,ft3,fa6,fs10
    80001a9c:	a2757a43          	fmadd.d	fs4,fa0,ft7,fs4
    80001aa0:	9a3579c3          	fmadd.d	fs3,fa0,ft3,fs3
    80001aa4:	8bc578c3          	fmadd.d	fa7,fa0,ft8,fa7
    80001aa8:	ba607bc3          	fmadd.d	fs7,ft0,ft6,fs7
    80001aac:	9267f943          	fmadd.d	fs2,fa5,ft6,fs2
    80001ab0:	4a63f4c3          	fmadd.d	fs1,ft7,ft6,fs1
    80001ab4:	4261f443          	fmadd.d	fs0,ft3,ft6,fs0
    80001ab8:	5a6e75c3          	fmadd.d	fa1,ft8,ft6,fa1
    80001abc:	c2e07c43          	fmadd.d	fs8,ft0,fa4,fs8
    80001ac0:	fae7ffc3          	fmadd.d	ft11,fa5,fa4,ft11
    80001ac4:	f2e3ff43          	fmadd.d	ft10,ft7,fa4,ft10
    80001ac8:	eae1fec3          	fmadd.d	ft9,ft3,fa4,ft9
    80001acc:	62ee7643          	fmadd.d	fa2,ft8,fa4,fa2
    80001ad0:	02073507          	fld	fa0,32(a4)
    80001ad4:	0e073687          	fld	fa3,224(a4)
    80001ad8:	1a073007          	fld	ft0,416(a4)
    80001adc:	26073787          	fld	fa5,608(a4)
    80001ae0:	3287b187          	fld	ft3,808(a5)
    80001ae4:	3387bc87          	fld	fs9,824(a5)
    80001ae8:	3207b387          	fld	ft7,800(a5)
    80001aec:	3307bd07          	fld	fs10,816(a5)
    80001af0:	3407be07          	fld	ft8,832(a5)
    80001af4:	12f1f343          	fmadd.d	ft6,ft3,fa5,ft2
    80001af8:	b2757b43          	fmadd.d	fs6,fa0,ft7,fs6
    80001afc:	aa357ac3          	fmadd.d	fs5,fa0,ft3,fs5
    80001b00:	9b9579c3          	fmadd.d	fs3,fa0,fs9,fs3
    80001b04:	bad3fbc3          	fmadd.d	fs7,ft7,fa3,fs7
    80001b08:	92d1f943          	fmadd.d	fs2,ft3,fa3,fs2
    80001b0c:	42dcf443          	fmadd.d	fs0,fs9,fa3,fs0
    80001b10:	c203fc43          	fmadd.d	fs8,ft7,ft0,fs8
    80001b14:	fa01ffc3          	fmadd.d	ft11,ft3,ft0,ft11
    80001b18:	ea0cfec3          	fmadd.d	ft9,fs9,ft0,ft9
    80001b1c:	22fcf1c3          	fmadd.d	ft3,fs9,fa5,ft4
    80001b20:	0af3f3c3          	fmadd.d	ft7,ft7,fa5,ft1
    80001b24:	a3a57a43          	fmadd.d	fs4,fa0,fs10,fs4
    80001b28:	8bc578c3          	fmadd.d	fa7,fa0,ft8,fa7
    80001b2c:	4add74c3          	fmadd.d	fs1,fs10,fa3,fs1
    80001b30:	5ade75c3          	fmadd.d	fa1,ft8,fa3,fa1
    80001b34:	f20d7f43          	fmadd.d	ft10,fs10,ft0,ft10
    80001b38:	620e7643          	fmadd.d	fa2,ft8,ft0,fa2
    80001b3c:	2afd72c3          	fmadd.d	ft5,fs10,fa5,ft5
    80001b40:	dafe77c3          	fmadd.d	fa5,ft8,fa5,fs11
    80001b44:	02873507          	fld	fa0,40(a4)
    80001b48:	0e873687          	fld	fa3,232(a4)
    80001b4c:	1a873707          	fld	fa4,424(a4)
    80001b50:	26873807          	fld	fa6,616(a4)
    80001b54:	3e87b087          	fld	ft1,1000(a5)
    80001b58:	3f07b107          	fld	ft2,1008(a5)
    80001b5c:	3f87b207          	fld	ft4,1016(a5)
    80001b60:	4007b007          	fld	ft0,1024(a5)
    80001b64:	4087bd87          	fld	fs11,1032(a5)
    80001b68:	4b078793          	addi	a5,a5,1200
    80001b6c:	b2157cc3          	fmadd.d	fs9,fa0,ft1,fs6
    80001b70:	aa257ac3          	fmadd.d	fs5,fa0,ft2,fs5
    80001b74:	a2457a43          	fmadd.d	fs4,fa0,ft4,fs4
    80001b78:	9a0579c3          	fmadd.d	fs3,fa0,ft0,fs3
    80001b7c:	8bb578c3          	fmadd.d	fa7,fa0,fs11,fa7
    80001b80:	bad0fbc3          	fmadd.d	fs7,ft1,fa3,fs7
    80001b84:	92d17943          	fmadd.d	fs2,ft2,fa3,fs2
    80001b88:	4ad274c3          	fmadd.d	fs1,ft4,fa3,fs1
    80001b8c:	42d07443          	fmadd.d	fs0,ft0,fa3,fs0
    80001b90:	5addf5c3          	fmadd.d	fa1,fs11,fa3,fa1
    80001b94:	c2e0fc43          	fmadd.d	fs8,ft1,fa4,fs8
    80001b98:	fae17fc3          	fmadd.d	ft11,ft2,fa4,ft11
    80001b9c:	f2e27f43          	fmadd.d	ft10,ft4,fa4,ft10
    80001ba0:	eae07ec3          	fmadd.d	ft9,ft0,fa4,ft9
    80001ba4:	62edf643          	fmadd.d	fa2,fs11,fa4,fa2
    80001ba8:	3b00f3c3          	fmadd.d	ft7,ft1,fa6,ft7
    80001bac:	33017343          	fmadd.d	ft6,ft2,fa6,ft6
    80001bb0:	2b0272c3          	fmadd.d	ft5,ft4,fa6,ft5
    80001bb4:	1b0071c3          	fmadd.d	ft3,ft0,fa6,ft3
    80001bb8:	7b0df7c3          	fmadd.d	fa5,fs11,fa6,fa5
    80001bbc:	03070713          	addi	a4,a4,48
    80001bc0:	d50790e3          	bne	a5,a6,80001900 <mm_cb+0x6fc>
    80001bc4:	019e3027          	fsd	fs9,0(t3)
    80001bc8:	015e3427          	fsd	fs5,8(t3)
    80001bcc:	014e3827          	fsd	fs4,16(t3)
    80001bd0:	013e3c27          	fsd	fs3,24(t3)
    80001bd4:	031e3027          	fsd	fa7,32(t3)
    80001bd8:	0d7e3427          	fsd	fs7,200(t3)
    80001bdc:	0d2e3827          	fsd	fs2,208(t3)
    80001be0:	0c9e3c27          	fsd	fs1,216(t3)
    80001be4:	0e8e3027          	fsd	fs0,224(t3)
    80001be8:	0ebe3427          	fsd	fa1,232(t3)
    80001bec:	198e3827          	fsd	fs8,400(t3)
    80001bf0:	19fe3c27          	fsd	ft11,408(t3)
    80001bf4:	1bee3027          	fsd	ft10,416(t3)
    80001bf8:	1bde3427          	fsd	ft9,424(t3)
    80001bfc:	1ace3827          	fsd	fa2,432(t3)
    80001c00:	247e3c27          	fsd	ft7,600(t3)
    80001c04:	266e3027          	fsd	ft6,608(t3)
    80001c08:	265e3427          	fsd	ft5,616(t3)
    80001c0c:	263e3827          	fsd	ft3,624(t3)
    80001c10:	26fe3c27          	fsd	fa5,632(t3)
    80001c14:	02838393          	addi	t2,t2,40
    80001c18:	028e0e13          	addi	t3,t3,40
    80001c1c:	c87a14e3          	bne	s4,t2,800018a4 <mm_cb+0x6a0>
    80001c20:	01900613          	li	a2,25
    80001c24:	000a8893          	mv	a7,s5
    80001c28:	000d8693          	mv	a3,s11
    80001c2c:	00c13023          	sd	a2,0(sp)
    80001c30:	01900813          	li	a6,25
    80001c34:	000a0793          	mv	a5,s4
    80001c38:	01800713          	li	a4,24
    80001c3c:	01800613          	li	a2,24
    80001c40:	00000593          	li	a1,0
    80001c44:	00400513          	li	a0,4
    80001c48:	320a8a93          	addi	s5,s5,800
    80001c4c:	fffff097          	auipc	ra,0xfffff
    80001c50:	3fc080e7          	jalr	1020(ra) # 80001048 <mm_naive>
    80001c54:	300d8d93          	addi	s11,s11,768
    80001c58:	c55992e3          	bne	s3,s5,8000189c <mm_cb+0x698>
    80001c5c:	00001eb7          	lui	t4,0x1
    80001c60:	ee043883          	ld	a7,-288(s0)
    80001c64:	01900513          	li	a0,25
    80001c68:	200e8293          	addi	t0,t4,512 # 1200 <_tbss_end+0x117c>
    80001c6c:	00a13023          	sd	a0,0(sp)
    80001c70:	005906b3          	add	a3,s2,t0
    80001c74:	01900813          	li	a6,25
    80001c78:	00048793          	mv	a5,s1
    80001c7c:	01800713          	li	a4,24
    80001c80:	01800613          	li	a2,24
    80001c84:	01900593          	li	a1,25
    80001c88:	00000513          	li	a0,0
    80001c8c:	fffff097          	auipc	ra,0xfffff
    80001c90:	3bc080e7          	jalr	956(ra) # 80001048 <mm_naive>
    80001c94:	f1043683          	ld	a3,-240(s0)
    80001c98:	018d0d13          	addi	s10,s10,24
    80001c9c:	bcdd60e3          	bltu	s10,a3,8000185c <mm_cb+0x658>
    80001ca0:	e4843c83          	ld	s9,-440(s0)
    80001ca4:	e0843b83          	ld	s7,-504(s0)
    80001ca8:	da043b03          	ld	s6,-608(s0)
    80001cac:	d9843a83          	ld	s5,-616(s0)
    80001cb0:	d9043a03          	ld	s4,-624(s0)
    80001cb4:	ec043f83          	ld	t6,-320(s0)
    80001cb8:	f0043883          	ld	a7,-256(s0)
    80001cbc:	f1043f03          	ld	t5,-240(s0)
    80001cc0:	0c8f8d93          	addi	s11,t6,200
    80001cc4:	251f68e3          	bltu	t5,a7,80002714 <mm_cb+0x1510>
    80001cc8:	ea843903          	ld	s2,-344(s0)
    80001ccc:	ef043083          	ld	ra,-272(s0)
    80001cd0:	edb43023          	sd	s11,-320(s0)
    80001cd4:	01990993          	addi	s3,s2,25
    80001cd8:	eb343423          	sd	s3,-344(s0)
    80001cdc:	b019eae3          	bltu	s3,ra,800017f0 <mm_cb+0x5ec>
    80001ce0:	000a0993          	mv	s3,s4
    80001ce4:	de043a03          	ld	s4,-544(s0)
    80001ce8:	df043883          	ld	a7,-528(s0)
    80001cec:	e8043603          	ld	a2,-384(s0)
    80001cf0:	eb843e03          	ld	t3,-328(s0)
    80001cf4:	ef043283          	ld	t0,-272(s0)
    80001cf8:	00c885b3          	add	a1,a7,a2
    80001cfc:	e4b43023          	sd	a1,-448(s0)
    80001d00:	01c2f463          	bleu	t3,t0,80001d08 <mm_cb+0xb04>
    80001d04:	7fd0006f          	j	80002d00 <mm_cb+0x1afc>
    80001d08:	e9843e83          	ld	t4,-360(s0)
    80001d0c:	e4043083          	ld	ra,-448(s0)
    80001d10:	e5043783          	ld	a5,-432(s0)
    80001d14:	ef843703          	ld	a4,-264(s0)
    80001d18:	018e8f13          	addi	t5,t4,24
    80001d1c:	e9e43c23          	sd	t5,-360(s0)
    80001d20:	e8143023          	sd	ra,-384(s0)
    80001d24:	ecf43423          	sd	a5,-312(s0)
    80001d28:	a6ef6ae3          	bltu	t5,a4,8000179c <mm_cb+0x598>
    80001d2c:	e7043983          	ld	s3,-400(s0)
    80001d30:	ef843a03          	ld	s4,-264(s0)
    80001d34:	073a76e3          	bleu	s3,s4,800025a0 <mm_cb+0x139c>
    80001d38:	eb843a83          	ld	s5,-328(s0)
    80001d3c:	060a82e3          	beqz	s5,800025a0 <mm_cb+0x139c>
    80001d40:	e7043b83          	ld	s7,-400(s0)
    80001d44:	01800b13          	li	s6,24
    80001d48:	f1843283          	ld	t0,-232(s0)
    80001d4c:	036bf633          	remu	a2,s7,s6
    80001d50:	00043c03          	ld	s8,0(s0)
    80001d54:	ef843a03          	ld	s4,-264(s0)
    80001d58:	00329893          	slli	a7,t0,0x3
    80001d5c:	003c1913          	slli	s2,s8,0x3
    80001d60:	00529793          	slli	a5,t0,0x5
    80001d64:	e3143823          	sd	a7,-464(s0)
    80001d68:	e3243423          	sd	s2,-472(s0)
    80001d6c:	f2043d03          	ld	s10,-224(s0)
    80001d70:	00043803          	ld	a6,0(s0)
    80001d74:	00043703          	ld	a4,0(s0)
    80001d78:	001d1693          	slli	a3,s10,0x1
    80001d7c:	002d1393          	slli	t2,s10,0x2
    80001d80:	01a684b3          	add	s1,a3,s10
    80001d84:	01a38533          	add	a0,t2,s10
    80001d88:	003d1593          	slli	a1,s10,0x3
    80001d8c:	004d1e13          	slli	t3,s10,0x4
    80001d90:	005d1e93          	slli	t4,s10,0x5
    80001d94:	df843383          	ld	t2,-520(s0)
    80001d98:	ea043d03          	ld	s10,-352(s0)
    80001d9c:	001c1c93          	slli	s9,s8,0x1
    80001da0:	e6843f03          	ld	t5,-408(s0)
    80001da4:	010c8db3          	add	s11,s9,a6
    80001da8:	003d9f93          	slli	t6,s11,0x3
    80001dac:	00649093          	slli	ra,s1,0x6
    80001db0:	00481313          	slli	t1,a6,0x4
    80001db4:	00349c13          	slli	s8,s1,0x3
    80001db8:	00449b13          	slli	s6,s1,0x4
    80001dbc:	00571993          	slli	s3,a4,0x5
    80001dc0:	e2643023          	sd	t1,-480(s0)
    80001dc4:	dff43023          	sd	t6,-544(s0)
    80001dc8:	00351c93          	slli	s9,a0,0x3
    80001dcc:	e9e43423          	sd	t5,-376(s0)
    80001dd0:	dc143c23          	sd	ra,-552(s0)
    80001dd4:	e6f43423          	sd	a5,-408(s0)
    80001dd8:	e7343823          	sd	s3,-400(s0)
    80001ddc:	ec043023          	sd	zero,-320(s0)
    80001de0:	00058d93          	mv	s11,a1
    80001de4:	ffc67b93          	andi	s7,a2,-4
    80001de8:	03490ab3          	mul	s5,s2,s4
    80001dec:	41760633          	sub	a2,a2,s7
    80001df0:	ed743c23          	sd	s7,-296(s0)
    80001df4:	e0c43823          	sd	a2,-496(s0)
    80001df8:	034882b3          	mul	t0,a7,s4
    80001dfc:	015d06b3          	add	a3,s10,s5
    80001e00:	e8d43823          	sd	a3,-368(s0)
    80001e04:	000e0d13          	mv	s10,t3
    80001e08:	037888b3          	mul	a7,a7,s7
    80001e0c:	005384b3          	add	s1,t2,t0
    80001e10:	de943823          	sd	s1,-528(s0)
    80001e14:	000e8393          	mv	t2,t4
    80001e18:	03790933          	mul	s2,s2,s7
    80001e1c:	e1143423          	sd	a7,-504(s0)
    80001e20:	e1243023          	sd	s2,-512(s0)
    80001e24:	f0043803          	ld	a6,-256(s0)
    80001e28:	74080663          	beqz	a6,80002574 <mm_cb+0x1370>
    80001e2c:	eb843503          	ld	a0,-328(s0)
    80001e30:	ec043303          	ld	t1,-320(s0)
    80001e34:	01900593          	li	a1,25
    80001e38:	40650fb3          	sub	t6,a0,t1
    80001e3c:	edf43423          	sd	t6,-312(s0)
    80001e40:	01f5f663          	bleu	t6,a1,80001e4c <mm_cb+0xc48>
    80001e44:	01900e13          	li	t3,25
    80001e48:	edc43423          	sd	t3,-312(s0)
    80001e4c:	ec843e83          	ld	t4,-312(s0)
    80001e50:	00500f13          	li	t5,5
    80001e54:	e9043983          	ld	s3,-368(s0)
    80001e58:	03eed0b3          	divu	ra,t4,t5
    80001e5c:	e0043783          	ld	a5,-512(s0)
    80001e60:	e2843803          	ld	a6,-472(s0)
    80001e64:	e2043303          	ld	t1,-480(s0)
    80001e68:	de043583          	ld	a1,-544(s0)
    80001e6c:	df043a03          	ld	s4,-528(s0)
    80001e70:	e8843a83          	ld	s5,-376(s0)
    80001e74:	01378733          	add	a4,a5,s3
    80001e78:	dee43c23          	sd	a4,-520(s0)
    80001e7c:	e7443c23          	sd	s4,-392(s0)
    80001e80:	ef543023          	sd	s5,-288(s0)
    80001e84:	ea043423          	sd	zero,-344(s0)
    80001e88:	03eefbb3          	remu	s7,t4,t5
    80001e8c:	00209613          	slli	a2,ra,0x2
    80001e90:	001602b3          	add	t0,a2,ra
    80001e94:	00329893          	slli	a7,t0,0x3
    80001e98:	405004b3          	neg	s1,t0
    80001e9c:	00349913          	slli	s2,s1,0x3
    80001ea0:	011986b3          	add	a3,s3,a7
    80001ea4:	41180533          	sub	a0,a6,a7
    80001ea8:	41130fb3          	sub	t6,t1,a7
    80001eac:	41158e33          	sub	t3,a1,a7
    80001eb0:	00038493          	mv	s1,t2
    80001eb4:	e1143c23          	sd	a7,-488(s0)
    80001eb8:	ded43423          	sd	a3,-536(s0)
    80001ebc:	e3243c23          	sd	s2,-456(s0)
    80001ec0:	e4a43023          	sd	a0,-448(s0)
    80001ec4:	e5f43423          	sd	t6,-440(s0)
    80001ec8:	e5c43823          	sd	t3,-432(s0)
    80001ecc:	00028393          	mv	t2,t0
    80001ed0:	e9743c23          	sd	s7,-360(s0)
    80001ed4:	f0043e83          	ld	t4,-256(s0)
    80001ed8:	ea843f03          	ld	t5,-344(s0)
    80001edc:	01800793          	li	a5,24
    80001ee0:	41ee80b3          	sub	ra,t4,t5
    80001ee4:	ee143423          	sd	ra,-280(s0)
    80001ee8:	0017f663          	bleu	ra,a5,80001ef4 <mm_cb+0xcf0>
    80001eec:	01800993          	li	s3,24
    80001ef0:	ef343423          	sd	s3,-280(s0)
    80001ef4:	ed843703          	ld	a4,-296(s0)
    80001ef8:	60070663          	beqz	a4,80002504 <mm_cb+0x1300>
    80001efc:	ee843283          	ld	t0,-280(s0)
    80001f00:	00600513          	li	a0,6
    80001f04:	e3043b83          	ld	s7,-464(s0)
    80001f08:	02a2d333          	divu	t1,t0,a0
    80001f0c:	e7843983          	ld	s3,-392(s0)
    80001f10:	e1843883          	ld	a7,-488(s0)
    80001f14:	ee043683          	ld	a3,-288(s0)
    80001f18:	de843803          	ld	a6,-536(s0)
    80001f1c:	013b8a33          	add	s4,s7,s3
    80001f20:	00d88933          	add	s2,a7,a3
    80001f24:	014b8ab3          	add	s5,s7,s4
    80001f28:	00329613          	slli	a2,t0,0x3
    80001f2c:	e9243023          	sd	s2,-384(s0)
    80001f30:	e4c43c23          	sd	a2,-424(s0)
    80001f34:	015b8bb3          	add	s7,s7,s5
    80001f38:	f1043823          	sd	a6,-240(s0)
    80001f3c:	f0043423          	sd	zero,-248(s0)
    80001f40:	03630e33          	mul	t3,t1,s6
    80001f44:	00131f93          	slli	t6,t1,0x1
    80001f48:	006f85b3          	add	a1,t6,t1
    80001f4c:	00459913          	slli	s2,a1,0x4
    80001f50:	e7c43023          	sd	t3,-416(s0)
    80001f54:	52038e63          	beqz	t2,80002490 <mm_cb+0x128c>
    80001f58:	f1043083          	ld	ra,-240(s0)
    80001f5c:	e5043283          	ld	t0,-432(s0)
    80001f60:	e3843f03          	ld	t5,-456(s0)
    80001f64:	e4043783          	ld	a5,-448(s0)
    80001f68:	e4843703          	ld	a4,-440(s0)
    80001f6c:	e5843e83          	ld	t4,-424(s0)
    80001f70:	00128533          	add	a0,t0,ra
    80001f74:	001f0333          	add	t1,t5,ra
    80001f78:	001788b3          	add	a7,a5,ra
    80001f7c:	00170833          	add	a6,a4,ra
    80001f80:	ee043f83          	ld	t6,-288(s0)
    80001f84:	e6043083          	ld	ra,-416(s0)
    80001f88:	01390e33          	add	t3,s2,s3
    80001f8c:	013e8eb3          	add	t4,t4,s3
    80001f90:	00000293          	li	t0,0
    80001f94:	000f8793          	mv	a5,t6
    80001f98:	00033a87          	fld	fs5,0(t1)
    80001f9c:	00833a07          	fld	fs4,8(t1)
    80001fa0:	01033987          	fld	fs3,16(t1)
    80001fa4:	01833907          	fld	fs2,24(t1)
    80001fa8:	02033007          	fld	ft0,32(t1)
    80001fac:	0008b487          	fld	fs1,0(a7)
    80001fb0:	0088b407          	fld	fs0,8(a7)
    80001fb4:	0108bf87          	fld	ft11,16(a7)
    80001fb8:	0188bf07          	fld	ft10,24(a7)
    80001fbc:	0208b587          	fld	fa1,32(a7)
    80001fc0:	00083e07          	fld	ft8,0(a6)
    80001fc4:	00883b87          	fld	fs7,8(a6)
    80001fc8:	01083e87          	fld	ft9,16(a6)
    80001fcc:	01883287          	fld	ft5,24(a6)
    80001fd0:	02083607          	fld	fa2,32(a6)
    80001fd4:	00053207          	fld	ft4,0(a0)
    80001fd8:	00853187          	fld	ft3,8(a0)
    80001fdc:	01053107          	fld	ft2,16(a0)
    80001fe0:	01853687          	fld	fa3,24(a0)
    80001fe4:	02053787          	fld	fa5,32(a0)
    80001fe8:	39c9fc63          	bleu	t3,s3,80002380 <mm_cb+0x117c>
    80001fec:	235a8553          	fmv.d	fa0,fs5
    80001ff0:	22840dd3          	fmv.d	fs11,fs0
    80001ff4:	23ff8cd3          	fmv.d	fs9,ft11
    80001ff8:	23de8b53          	fmv.d	fs6,ft9
    80001ffc:	22420ad3          	fmv.d	fs5,ft4
    80002000:	22f788d3          	fmv.d	fa7,fa5
    80002004:	23ef0253          	fmv.d	ft4,ft10
    80002008:	23398453          	fmv.d	fs0,fs3
    8000200c:	23290fd3          	fmv.d	ft11,fs2
    80002010:	237b8ed3          	fmv.d	ft9,fs7
    80002014:	22528c53          	fmv.d	fs8,ft5
    80002018:	22c60753          	fmv.d	fa4,fa2
    8000201c:	22948f53          	fmv.d	ft10,fs1
    80002020:	22318353          	fmv.d	ft6,ft3
    80002024:	222103d3          	fmv.d	ft7,ft2
    80002028:	22d68853          	fmv.d	fa6,fa3
    8000202c:	234a07d3          	fmv.d	fa5,fs4
    80002030:	00038f13          	mv	t5,t2
    80002034:	000b8593          	mv	a1,s7
    80002038:	000a8613          	mv	a2,s5
    8000203c:	000a0693          	mv	a3,s4
    80002040:	00098713          	mv	a4,s3
    80002044:	f2143423          	sd	ra,-216(s0)
    80002048:	000e8393          	mv	t2,t4
    8000204c:	00073a07          	fld	fs4,0(a4)
    80002050:	0006b987          	fld	fs3,0(a3)
    80002054:	00063907          	fld	fs2,0(a2)
    80002058:	0005bd07          	fld	fs10,0(a1)
    8000205c:	0007b187          	fld	ft3,0(a5)
    80002060:	0087b107          	fld	ft2,8(a5)
    80002064:	0107bb87          	fld	fs7,16(a5)
    80002068:	0187b607          	fld	fa2,24(a5)
    8000206c:	0207b687          	fld	fa3,32(a5)
    80002070:	db317dc3          	fmadd.d	fs11,ft2,fs3,fs11
    80002074:	cb3bfcc3          	fmadd.d	fs9,fs7,fs3,fs9
    80002078:	e321f2c3          	fmadd.d	ft5,ft3,fs2,ft8
    8000207c:	aba1f0c3          	fmadd.d	ft1,ft3,fs10,fs5
    80002080:	523a7543          	fmadd.d	fa0,fs4,ft3,fa0
    80002084:	7a2a77c3          	fmadd.d	fa5,fs4,ft2,fa5
    80002088:	437a7443          	fmadd.d	fs0,fs4,fs7,fs0
    8000208c:	faca7fc3          	fmadd.d	ft11,fs4,fa2,ft11
    80002090:	02da7043          	fmadd.d	ft0,fs4,fa3,ft0
    80002094:	f331ff43          	fmadd.d	ft10,ft3,fs3,ft10
    80002098:	23367243          	fmadd.d	ft4,fa2,fs3,ft4
    8000209c:	5b36f5c3          	fmadd.d	fa1,fa3,fs3,fa1
    800020a0:	eb217ec3          	fmadd.d	ft9,ft2,fs2,ft9
    800020a4:	b32bfb43          	fmadd.d	fs6,fs7,fs2,fs6
    800020a8:	c3267c43          	fmadd.d	fs8,fa2,fs2,fs8
    800020ac:	7326f743          	fmadd.d	fa4,fa3,fs2,fa4
    800020b0:	33a17343          	fmadd.d	ft6,ft2,fs10,ft6
    800020b4:	3babf3c3          	fmadd.d	ft7,fs7,fs10,ft7
    800020b8:	83a67843          	fmadd.d	fa6,fa2,fs10,fa6
    800020bc:	8ba6f8c3          	fmadd.d	fa7,fa3,fs10,fa7
    800020c0:	00fd8eb3          	add	t4,s11,a5
    800020c4:	00873487          	fld	fs1,8(a4)
    800020c8:	0086bd07          	fld	fs10,8(a3)
    800020cc:	00863107          	fld	ft2,8(a2)
    800020d0:	0085b907          	fld	fs2,8(a1)
    800020d4:	000eb187          	fld	ft3,0(t4)
    800020d8:	008ebb87          	fld	fs7,8(t4)
    800020dc:	010eba87          	fld	fs5,16(t4)
    800020e0:	018eba07          	fld	fs4,24(t4)
    800020e4:	020eb987          	fld	fs3,32(t4)
    800020e8:	dbabfe43          	fmadd.d	ft8,fs7,fs10,fs11
    800020ec:	23aa7243          	fmadd.d	ft4,fs4,fs10,ft4
    800020f0:	cbaafdc3          	fmadd.d	fs11,fs5,fs10,fs9
    800020f4:	0b21f0c3          	fmadd.d	ft1,ft3,fs2,ft1
    800020f8:	5234f543          	fmadd.d	fa0,fs1,ft3,fa0
    800020fc:	7b74f7c3          	fmadd.d	fa5,fs1,fs7,fa5
    80002100:	4354f443          	fmadd.d	fs0,fs1,fs5,fs0
    80002104:	fb44ffc3          	fmadd.d	ft11,fs1,fs4,ft11
    80002108:	0334f043          	fmadd.d	ft0,fs1,fs3,ft0
    8000210c:	f3a1ff43          	fmadd.d	ft10,ft3,fs10,ft10
    80002110:	5ba9f5c3          	fmadd.d	fa1,fs3,fs10,fa1
    80002114:	2a21f2c3          	fmadd.d	ft5,ft3,ft2,ft5
    80002118:	ea2bfec3          	fmadd.d	ft9,fs7,ft2,ft9
    8000211c:	b22afb43          	fmadd.d	fs6,fs5,ft2,fs6
    80002120:	c22a7c43          	fmadd.d	fs8,fs4,ft2,fs8
    80002124:	7229f743          	fmadd.d	fa4,fs3,ft2,fa4
    80002128:	332bf343          	fmadd.d	ft6,fs7,fs2,ft6
    8000212c:	3b2af3c3          	fmadd.d	ft7,fs5,fs2,ft7
    80002130:	832a7843          	fmadd.d	fa6,fs4,fs2,fa6
    80002134:	8b29f8c3          	fmadd.d	fa7,fs3,fs2,fa7
    80002138:	00fd00b3          	add	ra,s10,a5
    8000213c:	01073607          	fld	fa2,16(a4)
    80002140:	0106b687          	fld	fa3,16(a3)
    80002144:	01063d07          	fld	fs10,16(a2)
    80002148:	0105b107          	fld	ft2,16(a1)
    8000214c:	0080ba07          	fld	fs4,8(ra)
    80002150:	0100b907          	fld	fs2,16(ra)
    80002154:	0180b187          	fld	ft3,24(ra)
    80002158:	0200bc87          	fld	fs9,32(ra)
    8000215c:	0000bb87          	fld	fs7,0(ra)
    80002160:	dad974c3          	fmadd.d	fs1,fs2,fa3,fs11
    80002164:	73acf743          	fmadd.d	fa4,fs9,fs10,fa4
    80002168:	0a2bfac3          	fmadd.d	fs5,fs7,ft2,ft1
    8000216c:	53767543          	fmadd.d	fa0,fa2,fs7,fa0
    80002170:	22d1fdc3          	fmadd.d	fs11,ft3,fa3,ft4
    80002174:	8a2cf8c3          	fmadd.d	fa7,fs9,ft2,fa7
    80002178:	7b4677c3          	fmadd.d	fa5,fa2,fs4,fa5
    8000217c:	43267443          	fmadd.d	fs0,fa2,fs2,fs0
    80002180:	fa367fc3          	fmadd.d	ft11,fa2,ft3,ft11
    80002184:	03967043          	fmadd.d	ft0,fa2,fs9,ft0
    80002188:	f2dbff43          	fmadd.d	ft10,fs7,fa3,ft10
    8000218c:	e2da7e43          	fmadd.d	ft8,fs4,fa3,ft8
    80002190:	5adcf5c3          	fmadd.d	fa1,fs9,fa3,fa1
    80002194:	2babf2c3          	fmadd.d	ft5,fs7,fs10,ft5
    80002198:	ebaa7ec3          	fmadd.d	ft9,fs4,fs10,ft9
    8000219c:	b3a97b43          	fmadd.d	fs6,fs2,fs10,fs6
    800021a0:	c3a1fc43          	fmadd.d	fs8,ft3,fs10,fs8
    800021a4:	322a7343          	fmadd.d	ft6,fs4,ft2,ft6
    800021a8:	3a2973c3          	fmadd.d	ft7,fs2,ft2,ft7
    800021ac:	8221f843          	fmadd.d	fa6,ft3,ft2,fa6
    800021b0:	01878eb3          	add	t4,a5,s8
    800021b4:	01873207          	fld	ft4,24(a4)
    800021b8:	000eb607          	fld	fa2,0(t4)
    800021bc:	008eb987          	fld	fs3,8(t4)
    800021c0:	010ebd07          	fld	fs10,16(t4)
    800021c4:	018eb907          	fld	fs2,24(t4)
    800021c8:	020ebb87          	fld	fs7,32(t4)
    800021cc:	0186b687          	fld	fa3,24(a3)
    800021d0:	0185b087          	fld	ft1,24(a1)
    800021d4:	01863107          	fld	ft2,24(a2)
    800021d8:	52c27cc3          	fmadd.d	fs9,ft4,fa2,fa0
    800021dc:	03727043          	fmadd.d	ft0,ft4,fs7,ft0
    800021e0:	4add74c3          	fmadd.d	fs1,fs10,fa3,fs1
    800021e4:	dad97dc3          	fmadd.d	fs11,fs2,fa3,fs11
    800021e8:	5adbf5c3          	fmadd.d	fa1,fs7,fa3,fa1
    800021ec:	aa167a43          	fmadd.d	fs4,fa2,ft1,fs5
    800021f0:	3219f343          	fmadd.d	ft6,fs3,ft1,ft6
    800021f4:	3a1d73c3          	fmadd.d	ft7,fs10,ft1,ft7
    800021f8:	82197843          	fmadd.d	fa6,fs2,ft1,fa6
    800021fc:	7b3277c3          	fmadd.d	fa5,ft4,fs3,fa5
    80002200:	43a27443          	fmadd.d	fs0,ft4,fs10,fs0
    80002204:	fb227fc3          	fmadd.d	ft11,ft4,fs2,ft11
    80002208:	f2d67f43          	fmadd.d	ft10,fa2,fa3,ft10
    8000220c:	e2d9fe43          	fmadd.d	ft8,fs3,fa3,ft8
    80002210:	2a2672c3          	fmadd.d	ft5,fa2,ft2,ft5
    80002214:	ea29fec3          	fmadd.d	ft9,fs3,ft2,ft9
    80002218:	b22d7b43          	fmadd.d	fs6,fs10,ft2,fs6
    8000221c:	c2297c43          	fmadd.d	fs8,fs2,ft2,fs8
    80002220:	8a1bfd43          	fmadd.d	fs10,fs7,ft1,fa7
    80002224:	722bf143          	fmadd.d	ft2,fs7,ft2,fa4
    80002228:	00f480b3          	add	ra,s1,a5
    8000222c:	02073207          	fld	ft4,32(a4)
    80002230:	02063707          	fld	fa4,32(a2)
    80002234:	0205b187          	fld	ft3,32(a1)
    80002238:	0206b687          	fld	fa3,32(a3)
    8000223c:	0000ba87          	fld	fs5,0(ra)
    80002240:	0200b887          	fld	fa7,32(ra)
    80002244:	0080b907          	fld	fs2,8(ra)
    80002248:	0100b987          	fld	fs3,16(ra)
    8000224c:	0180bb87          	fld	fs7,24(ra)
    80002250:	cb527543          	fmadd.d	fa0,ft4,fs5,fs9
    80002254:	03127643          	fmadd.d	fa2,ft4,fa7,ft0
    80002258:	e2d97e43          	fmadd.d	ft8,fs2,fa3,ft8
    8000225c:	4ad9fcc3          	fmadd.d	fs9,fs3,fa3,fs1
    80002260:	d238f0c3          	fmadd.d	ft1,fa7,ft3,fs10
    80002264:	dadbf4c3          	fmadd.d	fs1,fs7,fa3,fs11
    80002268:	7b2277c3          	fmadd.d	fa5,ft4,fs2,fa5
    8000226c:	43327443          	fmadd.d	fs0,ft4,fs3,fs0
    80002270:	fb727fc3          	fmadd.d	ft11,ft4,fs7,ft11
    80002274:	f2daff43          	fmadd.d	ft10,fs5,fa3,ft10
    80002278:	2aeaf2c3          	fmadd.d	ft5,fs5,fa4,ft5
    8000227c:	5ad8f6c3          	fmadd.d	fa3,fa7,fa3,fa1
    80002280:	eae97ec3          	fmadd.d	ft9,fs2,fa4,ft9
    80002284:	b2e9fb43          	fmadd.d	fs6,fs3,fa4,fs6
    80002288:	c2ebfc43          	fmadd.d	fs8,fs7,fa4,fs8
    8000228c:	12e8f143          	fmadd.d	ft2,fa7,fa4,ft2
    80002290:	32397943          	fmadd.d	fs2,fs2,ft3,ft6
    80002294:	3a39f9c3          	fmadd.d	fs3,fs3,ft3,ft7
    80002298:	823bfbc3          	fmadd.d	fs7,fs7,ft3,fa6
    8000229c:	a23afa43          	fmadd.d	fs4,fs5,ft3,fs4
    800022a0:	01978eb3          	add	t4,a5,s9
    800022a4:	02873007          	fld	ft0,40(a4)
    800022a8:	0286b587          	fld	fa1,40(a3)
    800022ac:	02863707          	fld	fa4,40(a2)
    800022b0:	0285bd07          	fld	fs10,40(a1)
    800022b4:	000eb187          	fld	ft3,0(t4)
    800022b8:	008eb307          	fld	ft6,8(t4)
    800022bc:	010eb387          	fld	ft7,16(t4)
    800022c0:	018eb807          	fld	fa6,24(t4)
    800022c4:	020eb887          	fld	fa7,32(t4)
    800022c8:	03070713          	addi	a4,a4,48
    800022cc:	e2b37dc3          	fmadd.d	fs11,ft6,fa1,ft8
    800022d0:	7a6077c3          	fmadd.d	fa5,ft0,ft6,fa5
    800022d4:	42707443          	fmadd.d	fs0,ft0,ft7,fs0
    800022d8:	fb007fc3          	fmadd.d	ft11,ft0,fa6,ft11
    800022dc:	cab3fcc3          	fmadd.d	fs9,ft7,fa1,fs9
    800022e0:	4ab87243          	fmadd.d	ft4,fa6,fa1,fs1
    800022e4:	eae37ec3          	fmadd.d	ft9,ft6,fa4,ft9
    800022e8:	b2e3fb43          	fmadd.d	fs6,ft7,fa4,fs6
    800022ec:	c2e87c43          	fmadd.d	fs8,fa6,fa4,fs8
    800022f0:	52307543          	fmadd.d	fa0,ft0,ft3,fa0
    800022f4:	f2b1ff43          	fmadd.d	ft10,ft3,fa1,ft10
    800022f8:	63107043          	fmadd.d	ft0,ft0,fa7,fa2
    800022fc:	6ab8f5c3          	fmadd.d	fa1,fa7,fa1,fa3
    80002300:	2ae1fe43          	fmadd.d	ft8,ft3,fa4,ft5
    80002304:	a3a1fac3          	fmadd.d	fs5,ft3,fs10,fs4
    80002308:	12e8f743          	fmadd.d	fa4,fa7,fa4,ft2
    8000230c:	93a37343          	fmadd.d	ft6,ft6,fs10,fs2
    80002310:	9ba3f3c3          	fmadd.d	ft7,ft7,fs10,fs3
    80002314:	bba87843          	fmadd.d	fa6,fa6,fs10,fs7
    80002318:	0ba8f8c3          	fmadd.d	fa7,fa7,fs10,ft1
    8000231c:	016787b3          	add	a5,a5,s6
    80002320:	03068693          	addi	a3,a3,48
    80002324:	03060613          	addi	a2,a2,48
    80002328:	03058593          	addi	a1,a1,48
    8000232c:	d3c760e3          	bltu	a4,t3,8000204c <mm_cb+0xe48>
    80002330:	22f78a53          	fmv.d	fs4,fa5
    80002334:	228409d3          	fmv.d	fs3,fs0
    80002338:	23ff8953          	fmv.d	fs2,ft11
    8000233c:	23ef04d3          	fmv.d	fs1,ft10
    80002340:	23de8bd3          	fmv.d	fs7,ft9
    80002344:	22420f53          	fmv.d	ft10,ft4
    80002348:	23bd8453          	fmv.d	fs0,fs11
    8000234c:	235a8253          	fmv.d	ft4,fs5
    80002350:	239c8fd3          	fmv.d	ft11,fs9
    80002354:	236b0ed3          	fmv.d	ft9,fs6
    80002358:	238c02d3          	fmv.d	ft5,fs8
    8000235c:	22e70653          	fmv.d	fa2,fa4
    80002360:	22a50ad3          	fmv.d	fs5,fa0
    80002364:	226301d3          	fmv.d	ft3,ft6
    80002368:	22738153          	fmv.d	ft2,ft7
    8000236c:	230806d3          	fmv.d	fa3,fa6
    80002370:	231887d3          	fmv.d	fa5,fa7
    80002374:	f2843083          	ld	ra,-216(s0)
    80002378:	00038e93          	mv	t4,t2
    8000237c:	000f0393          	mv	t2,t5
    80002380:	01f08733          	add	a4,ra,t6
    80002384:	0bde7063          	bleu	t4,t3,80002424 <mm_cb+0x1220>
    80002388:	014907b3          	add	a5,s2,s4
    8000238c:	01590633          	add	a2,s2,s5
    80002390:	017906b3          	add	a3,s2,s7
    80002394:	000e0f13          	mv	t5,t3
    80002398:	000f3d07          	fld	fs10,0(t5)
    8000239c:	0007b087          	fld	ft1,0(a5)
    800023a0:	00063507          	fld	fa0,0(a2)
    800023a4:	0006bd87          	fld	fs11,0(a3)
    800023a8:	00073c87          	fld	fs9,0(a4)
    800023ac:	00873b07          	fld	fs6,8(a4)
    800023b0:	01073c07          	fld	fs8,16(a4)
    800023b4:	01873707          	fld	fa4,24(a4)
    800023b8:	02073307          	fld	ft6,32(a4)
    800023bc:	008f0f13          	addi	t5,t5,8
    800023c0:	ab9d7ac3          	fmadd.d	fs5,fs10,fs9,fs5
    800023c4:	a36d7a43          	fmadd.d	fs4,fs10,fs6,fs4
    800023c8:	9b8d79c3          	fmadd.d	fs3,fs10,fs8,fs3
    800023cc:	92ed7943          	fmadd.d	fs2,fs10,fa4,fs2
    800023d0:	026d7043          	fmadd.d	ft0,fs10,ft6,ft0
    800023d4:	4a1cf4c3          	fmadd.d	fs1,fs9,ft1,fs1
    800023d8:	421b7443          	fmadd.d	fs0,fs6,ft1,fs0
    800023dc:	fa1c7fc3          	fmadd.d	ft11,fs8,ft1,ft11
    800023e0:	f2177f43          	fmadd.d	ft10,fa4,ft1,ft10
    800023e4:	5a1375c3          	fmadd.d	fa1,ft6,ft1,fa1
    800023e8:	e2acfe43          	fmadd.d	ft8,fs9,fa0,ft8
    800023ec:	baab7bc3          	fmadd.d	fs7,fs6,fa0,fs7
    800023f0:	eaac7ec3          	fmadd.d	ft9,fs8,fa0,ft9
    800023f4:	2aa772c3          	fmadd.d	ft5,fa4,fa0,ft5
    800023f8:	62a37643          	fmadd.d	fa2,ft6,fa0,fa2
    800023fc:	23bcf243          	fmadd.d	ft4,fs9,fs11,ft4
    80002400:	1bbb71c3          	fmadd.d	ft3,fs6,fs11,ft3
    80002404:	13bc7143          	fmadd.d	ft2,fs8,fs11,ft2
    80002408:	6bb776c3          	fmadd.d	fa3,fa4,fs11,fa3
    8000240c:	7bb377c3          	fmadd.d	fa5,ft6,fs11,fa5
    80002410:	01b70733          	add	a4,a4,s11
    80002414:	00878793          	addi	a5,a5,8
    80002418:	00860613          	addi	a2,a2,8
    8000241c:	00868693          	addi	a3,a3,8
    80002420:	f7df6ce3          	bltu	t5,t4,80002398 <mm_cb+0x1194>
    80002424:	01533027          	fsd	fs5,0(t1)
    80002428:	01433427          	fsd	fs4,8(t1)
    8000242c:	01333827          	fsd	fs3,16(t1)
    80002430:	01233c27          	fsd	fs2,24(t1)
    80002434:	02033027          	fsd	ft0,32(t1)
    80002438:	0098b027          	fsd	fs1,0(a7)
    8000243c:	0088b427          	fsd	fs0,8(a7)
    80002440:	01f8b827          	fsd	ft11,16(a7)
    80002444:	01e8bc27          	fsd	ft10,24(a7)
    80002448:	02b8b027          	fsd	fa1,32(a7)
    8000244c:	01c83027          	fsd	ft8,0(a6)
    80002450:	01783427          	fsd	fs7,8(a6)
    80002454:	01d83827          	fsd	ft9,16(a6)
    80002458:	00583c27          	fsd	ft5,24(a6)
    8000245c:	02c83027          	fsd	fa2,32(a6)
    80002460:	00453027          	fsd	ft4,0(a0)
    80002464:	00353427          	fsd	ft3,8(a0)
    80002468:	00253827          	fsd	ft2,16(a0)
    8000246c:	00d53c27          	fsd	fa3,24(a0)
    80002470:	02f53027          	fsd	fa5,32(a0)
    80002474:	00528293          	addi	t0,t0,5
    80002478:	02830313          	addi	t1,t1,40
    8000247c:	02888893          	addi	a7,a7,40
    80002480:	02880813          	addi	a6,a6,40
    80002484:	02850513          	addi	a0,a0,40
    80002488:	028f8f93          	addi	t6,t6,40
    8000248c:	b072e4e3          	bltu	t0,t2,80001f94 <mm_cb+0xd90>
    80002490:	f2743423          	sd	t2,-216(s0)
    80002494:	00043e03          	ld	t3,0(s0)
    80002498:	f0843383          	ld	t2,-248(s0)
    8000249c:	e8043783          	ld	a5,-384(s0)
    800024a0:	f1843703          	ld	a4,-232(s0)
    800024a4:	ee843603          	ld	a2,-280(s0)
    800024a8:	e9843583          	ld	a1,-360(s0)
    800024ac:	f1043883          	ld	a7,-240(s0)
    800024b0:	f2043803          	ld	a6,-224(s0)
    800024b4:	00438093          	addi	ra,t2,4
    800024b8:	00098693          	mv	a3,s3
    800024bc:	01c13023          	sd	t3,0(sp)
    800024c0:	00400513          	li	a0,4
    800024c4:	f0143423          	sd	ra,-248(s0)
    800024c8:	fffff097          	auipc	ra,0xfffff
    800024cc:	b80080e7          	jalr	-1152(ra) # 80001048 <mm_naive>
    800024d0:	f1043e83          	ld	t4,-240(s0)
    800024d4:	e7043f03          	ld	t5,-400(s0)
    800024d8:	e6843583          	ld	a1,-408(s0)
    800024dc:	ed843603          	ld	a2,-296(s0)
    800024e0:	f0843783          	ld	a5,-248(s0)
    800024e4:	01ee8733          	add	a4,t4,t5
    800024e8:	f0e43823          	sd	a4,-240(s0)
    800024ec:	00b989b3          	add	s3,s3,a1
    800024f0:	00ba0a33          	add	s4,s4,a1
    800024f4:	00ba8ab3          	add	s5,s5,a1
    800024f8:	00bb8bb3          	add	s7,s7,a1
    800024fc:	f2843383          	ld	t2,-216(s0)
    80002500:	a4c7eae3          	bltu	a5,a2,80001f54 <mm_cb+0xd50>
    80002504:	ee043a03          	ld	s4,-288(s0)
    80002508:	e7843903          	ld	s2,-392(s0)
    8000250c:	ea843303          	ld	t1,-344(s0)
    80002510:	e0843683          	ld	a3,-504(s0)
    80002514:	00043283          	ld	t0,0(s0)
    80002518:	df843883          	ld	a7,-520(s0)
    8000251c:	f2043803          	ld	a6,-224(s0)
    80002520:	e1043503          	ld	a0,-496(s0)
    80002524:	f1843703          	ld	a4,-232(s0)
    80002528:	ee843603          	ld	a2,-280(s0)
    8000252c:	ec843583          	ld	a1,-312(s0)
    80002530:	01830993          	addi	s3,t1,24
    80002534:	000a0793          	mv	a5,s4
    80002538:	012686b3          	add	a3,a3,s2
    8000253c:	00513023          	sd	t0,0(sp)
    80002540:	f2743423          	sd	t2,-216(s0)
    80002544:	eb343423          	sd	s3,-344(s0)
    80002548:	fffff097          	auipc	ra,0xfffff
    8000254c:	b00080e7          	jalr	-1280(ra) # 80001048 <mm_naive>
    80002550:	dd843883          	ld	a7,-552(s0)
    80002554:	f0043f83          	ld	t6,-256(s0)
    80002558:	0c090513          	addi	a0,s2,192
    8000255c:	011a0833          	add	a6,s4,a7
    80002560:	ef043023          	sd	a6,-288(s0)
    80002564:	e6a43c23          	sd	a0,-392(s0)
    80002568:	f2843383          	ld	t2,-216(s0)
    8000256c:	97f9e4e3          	bltu	s3,t6,80001ed4 <mm_cb+0xcd0>
    80002570:	00048393          	mv	t2,s1
    80002574:	ec043483          	ld	s1,-320(s0)
    80002578:	e8843083          	ld	ra,-376(s0)
    8000257c:	e9043e83          	ld	t4,-368(s0)
    80002580:	eb843703          	ld	a4,-328(s0)
    80002584:	01948e13          	addi	t3,s1,25
    80002588:	0c808593          	addi	a1,ra,200
    8000258c:	0c8e8f13          	addi	t5,t4,200
    80002590:	edc43023          	sd	t3,-320(s0)
    80002594:	e8b43423          	sd	a1,-376(s0)
    80002598:	e9e43823          	sd	t5,-368(s0)
    8000259c:	88ee64e3          	bltu	t3,a4,80001e24 <mm_cb+0xc20>
    800025a0:	ef843b03          	ld	s6,-264(s0)
    800025a4:	0e0b0a63          	beqz	s6,80002698 <mm_cb+0x1494>
    800025a8:	00043c03          	ld	s8,0(s0)
    800025ac:	ea043f03          	ld	t5,-352(s0)
    800025b0:	ef043903          	ld	s2,-272(s0)
    800025b4:	001c1c93          	slli	s9,s8,0x1
    800025b8:	00001d37          	lui	s10,0x1
    800025bc:	018c8db3          	add	s11,s9,s8
    800025c0:	006d9813          	slli	a6,s11,0x6
    800025c4:	003c1513          	slli	a0,s8,0x3
    800025c8:	00000e13          	li	t3,0
    800025cc:	01800493          	li	s1,24
    800025d0:	01900393          	li	t2,25
    800025d4:	2c0d0293          	addi	t0,s10,704 # 12c0 <_tbss_end+0x123c>
    800025d8:	380d0313          	addi	t1,s10,896
    800025dc:	0a090663          	beqz	s2,80002688 <mm_cb+0x1484>
    800025e0:	029e5ab3          	divu	s5,t3,s1
    800025e4:	ed043b83          	ld	s7,-304(s0)
    800025e8:	000f0f93          	mv	t6,t5
    800025ec:	00000e93          	li	t4,0
    800025f0:	037a88b3          	mul	a7,s5,s7
    800025f4:	eb043983          	ld	s3,-336(s0)
    800025f8:	000f8613          	mv	a2,t6
    800025fc:	027ed7b3          	divu	a5,t4,t2
    80002600:	01178a33          	add	s4,a5,a7
    80002604:	025a06b3          	mul	a3,s4,t0
    80002608:	00d980b3          	add	ra,s3,a3
    8000260c:	0c008c13          	addi	s8,ra,192
    80002610:	006085b3          	add	a1,ra,t1
    80002614:	f40c0b13          	addi	s6,s8,-192
    80002618:	00060713          	mv	a4,a2
    8000261c:	000b3387          	fld	ft7,0(s6)
    80002620:	008b3807          	fld	fa6,8(s6)
    80002624:	010b3887          	fld	fa7,16(s6)
    80002628:	018b3d07          	fld	fs10,24(s6)
    8000262c:	020b3087          	fld	ft1,32(s6)
    80002630:	028b3507          	fld	fa0,40(s6)
    80002634:	030b3d87          	fld	fs11,48(s6)
    80002638:	038b3c87          	fld	fs9,56(s6)
    8000263c:	00773027          	fsd	ft7,0(a4)
    80002640:	01073427          	fsd	fa6,8(a4)
    80002644:	01173827          	fsd	fa7,16(a4)
    80002648:	01a73c27          	fsd	fs10,24(a4)
    8000264c:	02173027          	fsd	ft1,32(a4)
    80002650:	02a73427          	fsd	fa0,40(a4)
    80002654:	03b73827          	fsd	fs11,48(a4)
    80002658:	03973c27          	fsd	fs9,56(a4)
    8000265c:	040b0b13          	addi	s6,s6,64
    80002660:	04070713          	addi	a4,a4,64
    80002664:	fb6c1ce3          	bne	s8,s6,8000261c <mm_cb+0x1418>
    80002668:	000c3b07          	fld	fs6,0(s8)
    8000266c:	0c8c0c13          	addi	s8,s8,200
    80002670:	0d663027          	fsd	fs6,192(a2)
    80002674:	00a60633          	add	a2,a2,a0
    80002678:	f9859ee3          	bne	a1,s8,80002614 <mm_cb+0x1410>
    8000267c:	019e8e93          	addi	t4,t4,25
    80002680:	0c8f8f93          	addi	t6,t6,200
    80002684:	f72ee8e3          	bltu	t4,s2,800025f4 <mm_cb+0x13f0>
    80002688:	ef843c83          	ld	s9,-264(s0)
    8000268c:	018e0e13          	addi	t3,t3,24
    80002690:	010f0f33          	add	t5,t5,a6
    80002694:	f59e64e3          	bltu	t3,s9,800025dc <mm_cb+0x13d8>
    80002698:	d8040113          	addi	sp,s0,-640
    8000269c:	27813083          	ld	ra,632(sp)
    800026a0:	27013403          	ld	s0,624(sp)
    800026a4:	26813483          	ld	s1,616(sp)
    800026a8:	26013903          	ld	s2,608(sp)
    800026ac:	25813983          	ld	s3,600(sp)
    800026b0:	25013a03          	ld	s4,592(sp)
    800026b4:	24813a83          	ld	s5,584(sp)
    800026b8:	24013b03          	ld	s6,576(sp)
    800026bc:	23813b83          	ld	s7,568(sp)
    800026c0:	23013c03          	ld	s8,560(sp)
    800026c4:	22813c83          	ld	s9,552(sp)
    800026c8:	22013d03          	ld	s10,544(sp)
    800026cc:	21813d83          	ld	s11,536(sp)
    800026d0:	20813407          	fld	fs0,520(sp)
    800026d4:	20013487          	fld	fs1,512(sp)
    800026d8:	1f813907          	fld	fs2,504(sp)
    800026dc:	1f013987          	fld	fs3,496(sp)
    800026e0:	1e813a07          	fld	fs4,488(sp)
    800026e4:	1e013a87          	fld	fs5,480(sp)
    800026e8:	1d813b07          	fld	fs6,472(sp)
    800026ec:	1d013b87          	fld	fs7,464(sp)
    800026f0:	1c813c07          	fld	fs8,456(sp)
    800026f4:	1c013c87          	fld	fs9,448(sp)
    800026f8:	1b813d07          	fld	fs10,440(sp)
    800026fc:	1b013d87          	fld	fs11,432(sp)
    80002700:	28010113          	addi	sp,sp,640
    80002704:	00008067          	ret
    80002708:	e7043a83          	ld	s5,-400(s0)
    8000270c:	e20a9663          	bnez	s5,80001d38 <mm_cb+0xb34>
    80002710:	f89ff06f          	j	80002698 <mm_cb+0x1494>
    80002714:	ea843083          	ld	ra,-344(s0)
    80002718:	01900313          	li	t1,25
    8000271c:	e4043903          	ld	s2,-448(s0)
    80002720:	0260d5b3          	divu	a1,ra,t1
    80002724:	e5843e03          	ld	t3,-424(s0)
    80002728:	ec843483          	ld	s1,-312(s0)
    8000272c:	eb043783          	ld	a5,-336(s0)
    80002730:	de843503          	ld	a0,-536(s0)
    80002734:	009e03b3          	add	t2,t3,s1
    80002738:	007e09b3          	add	s3,t3,t2
    8000273c:	013e0eb3          	add	t4,t3,s3
    80002740:	00038d13          	mv	s10,t2
    80002744:	000d8f13          	mv	t5,s11
    80002748:	e7843383          	ld	t2,-392(s0)
    8000274c:	00098d93          	mv	s11,s3
    80002750:	db843983          	ld	s3,-584(s0)
    80002754:	01258833          	add	a6,a1,s2
    80002758:	03880733          	mul	a4,a6,s8
    8000275c:	de043903          	ld	s2,-544(s0)
    80002760:	00e78633          	add	a2,a5,a4
    80002764:	00a602b3          	add	t0,a2,a0
    80002768:	0c860f93          	addi	t6,a2,200
    8000276c:	e0543423          	sd	t0,-504(s0)
    80002770:	dac43023          	sd	a2,-608(s0)
    80002774:	e2043683          	ld	a3,-480(s0)
    80002778:	ec043303          	ld	t1,-320(s0)
    8000277c:	e1843083          	ld	ra,-488(s0)
    80002780:	00998833          	add	a6,s3,s1
    80002784:	009688b3          	add	a7,a3,s1
    80002788:	f38f8513          	addi	a0,t6,-200
    8000278c:	00030793          	mv	a5,t1
    80002790:	00053a87          	fld	fs5,0(a0)
    80002794:	00853a07          	fld	fs4,8(a0)
    80002798:	01053987          	fld	fs3,16(a0)
    8000279c:	01853907          	fld	fs2,24(a0)
    800027a0:	02053007          	fld	ft0,32(a0)
    800027a4:	0c853487          	fld	fs1,200(a0)
    800027a8:	0d053407          	fld	fs0,208(a0)
    800027ac:	0d853f87          	fld	ft11,216(a0)
    800027b0:	0e053f07          	fld	ft10,224(a0)
    800027b4:	0e853587          	fld	fa1,232(a0)
    800027b8:	19053e07          	fld	ft8,400(a0)
    800027bc:	19853b87          	fld	fs7,408(a0)
    800027c0:	1a053e87          	fld	ft9,416(a0)
    800027c4:	1a853287          	fld	ft5,424(a0)
    800027c8:	1b053607          	fld	fa2,432(a0)
    800027cc:	25853207          	fld	ft4,600(a0)
    800027d0:	26053187          	fld	ft3,608(a0)
    800027d4:	26853107          	fld	ft2,616(a0)
    800027d8:	27053687          	fld	fa3,624(a0)
    800027dc:	27853787          	fld	fa5,632(a0)
    800027e0:	3704fc63          	bleu	a6,s1,80002b58 <mm_cb+0x1954>
    800027e4:	23ef0d53          	fmv.d	fs10,ft10
    800027e8:	235a8553          	fmv.d	fa0,fs5
    800027ec:	22948f53          	fmv.d	ft10,fs1
    800027f0:	22528c53          	fmv.d	fs8,ft5
    800027f4:	23ff84d3          	fmv.d	fs1,ft11
    800027f8:	23ce02d3          	fmv.d	ft5,ft8
    800027fc:	22f788d3          	fmv.d	fa7,fa5
    80002800:	22840e53          	fmv.d	ft8,fs0
    80002804:	23290fd3          	fmv.d	ft11,fs2
    80002808:	23398453          	fmv.d	fs0,fs3
    8000280c:	22420ad3          	fmv.d	fs5,ft4
    80002810:	222103d3          	fmv.d	ft7,ft2
    80002814:	22d68853          	fmv.d	fa6,fa3
    80002818:	234a07d3          	fmv.d	fa5,fs4
    8000281c:	00008e13          	mv	t3,ra
    80002820:	000e8593          	mv	a1,t4
    80002824:	000d8613          	mv	a2,s11
    80002828:	000d0693          	mv	a3,s10
    8000282c:	00048713          	mv	a4,s1
    80002830:	00088093          	mv	ra,a7
    80002834:	00073b07          	fld	fs6,0(a4)
    80002838:	0006ba07          	fld	fs4,0(a3)
    8000283c:	00063107          	fld	ft2,0(a2)
    80002840:	0005bc87          	fld	fs9,0(a1)
    80002844:	0087bd87          	fld	fs11,8(a5)
    80002848:	0107b207          	fld	ft4,16(a5)
    8000284c:	0187b987          	fld	fs3,24(a5)
    80002850:	0207b687          	fld	fa3,32(a5)
    80002854:	0007b087          	fld	ft1,0(a5)
    80002858:	d349fd43          	fmadd.d	fs10,fs3,fs4,fs10
    8000285c:	5b46f5c3          	fmadd.d	fa1,fa3,fs4,fa1
    80002860:	ba2dfbc3          	fmadd.d	fs7,fs11,ft2,fs7
    80002864:	6226f743          	fmadd.d	fa4,fa3,ft2,fa2
    80002868:	1b9df343          	fmadd.d	ft6,fs11,fs9,ft3
    8000286c:	521b7543          	fmadd.d	fa0,fs6,ft1,fa0
    80002870:	7bbb77c3          	fmadd.d	fa5,fs6,fs11,fa5
    80002874:	424b7443          	fmadd.d	fs0,fs6,ft4,fs0
    80002878:	fb3b7fc3          	fmadd.d	ft11,fs6,fs3,ft11
    8000287c:	02db7043          	fmadd.d	ft0,fs6,fa3,ft0
    80002880:	f340ff43          	fmadd.d	ft10,ft1,fs4,ft10
    80002884:	ea227b43          	fmadd.d	fs6,ft4,ft2,ft9
    80002888:	e34dfe43          	fmadd.d	ft8,fs11,fs4,ft8
    8000288c:	4b4274c3          	fmadd.d	fs1,ft4,fs4,fs1
    80002890:	2a20f2c3          	fmadd.d	ft5,ft1,ft2,ft5
    80002894:	c229fc43          	fmadd.d	fs8,fs3,ft2,fs8
    80002898:	ab90f0c3          	fmadd.d	ft1,ft1,fs9,fs5
    8000289c:	3b9273c3          	fmadd.d	ft7,ft4,fs9,ft7
    800028a0:	8399f843          	fmadd.d	fa6,fs3,fs9,fa6
    800028a4:	8b96f8c3          	fmadd.d	fa7,fa3,fs9,fa7
    800028a8:	014782b3          	add	t0,a5,s4
    800028ac:	00873e87          	fld	ft9,8(a4)
    800028b0:	0086b607          	fld	fa2,8(a3)
    800028b4:	00863107          	fld	ft2,8(a2)
    800028b8:	0085b907          	fld	fs2,8(a1)
    800028bc:	0002b187          	fld	ft3,0(t0)
    800028c0:	0082bc87          	fld	fs9,8(t0)
    800028c4:	0102ba87          	fld	fs5,16(t0)
    800028c8:	0182ba07          	fld	fs4,24(t0)
    800028cc:	0202bd87          	fld	fs11,32(t0)
    800028d0:	523ef543          	fmadd.d	fa0,ft9,ft3,fa0
    800028d4:	d2ca7243          	fmadd.d	ft4,fs4,fa2,fs10
    800028d8:	0b21f0c3          	fmadd.d	ft1,ft3,fs2,ft1
    800028dc:	5acdfd43          	fmadd.d	fs10,fs11,fa2,fa1
    800028e0:	7b9ef7c3          	fmadd.d	fa5,ft9,fs9,fa5
    800028e4:	435ef443          	fmadd.d	fs0,ft9,fs5,fs0
    800028e8:	fb4effc3          	fmadd.d	ft11,ft9,fs4,ft11
    800028ec:	03bef043          	fmadd.d	ft0,ft9,fs11,ft0
    800028f0:	f2c1ff43          	fmadd.d	ft10,ft3,fa2,ft10
    800028f4:	ba2cfec3          	fmadd.d	ft9,fs9,ft2,fs7
    800028f8:	e2ccfe43          	fmadd.d	ft8,fs9,fa2,ft8
    800028fc:	4acaf4c3          	fmadd.d	fs1,fs5,fa2,fs1
    80002900:	2a21f2c3          	fmadd.d	ft5,ft3,ft2,ft5
    80002904:	b22afb43          	fmadd.d	fs6,fs5,ft2,fs6
    80002908:	c22a7c43          	fmadd.d	fs8,fs4,ft2,fs8
    8000290c:	722df743          	fmadd.d	fa4,fs11,ft2,fa4
    80002910:	332cf343          	fmadd.d	ft6,fs9,fs2,ft6
    80002914:	3b2af3c3          	fmadd.d	ft7,fs5,fs2,ft7
    80002918:	832a7843          	fmadd.d	fa6,fs4,fs2,fa6
    8000291c:	8b2df8c3          	fmadd.d	fa7,fs11,fs2,fa7
    80002920:	00fc88b3          	add	a7,s9,a5
    80002924:	01073587          	fld	fa1,16(a4)
    80002928:	0106b687          	fld	fa3,16(a3)
    8000292c:	01063607          	fld	fa2,16(a2)
    80002930:	0105b107          	fld	ft2,16(a1)
    80002934:	0008bc87          	fld	fs9,0(a7)
    80002938:	0088b987          	fld	fs3,8(a7)
    8000293c:	0108b907          	fld	fs2,16(a7)
    80002940:	0208bb87          	fld	fs7,32(a7)
    80002944:	0188b187          	fld	ft3,24(a7)
    80002948:	0a2cfac3          	fmadd.d	fs5,fs9,ft2,ft1
    8000294c:	5395fdc3          	fmadd.d	fs11,fa1,fs9,fa0
    80002950:	7b35f7c3          	fmadd.d	fa5,fa1,fs3,fa5
    80002954:	d2dbfd43          	fmadd.d	fs10,fs7,fa3,fs10
    80002958:	72cbf743          	fmadd.d	fa4,fs7,fa2,fa4
    8000295c:	8221f843          	fmadd.d	fa6,ft3,ft2,fa6
    80002960:	8a2bf8c3          	fmadd.d	fa7,fs7,ft2,fa7
    80002964:	4325f443          	fmadd.d	fs0,fa1,fs2,fs0
    80002968:	fa35ffc3          	fmadd.d	ft11,fa1,ft3,ft11
    8000296c:	0375f043          	fmadd.d	ft0,fa1,fs7,ft0
    80002970:	f2dcff43          	fmadd.d	ft10,fs9,fa3,ft10
    80002974:	e2d9fe43          	fmadd.d	ft8,fs3,fa3,ft8
    80002978:	4ad974c3          	fmadd.d	fs1,fs2,fa3,fs1
    8000297c:	22d1f243          	fmadd.d	ft4,ft3,fa3,ft4
    80002980:	2accf2c3          	fmadd.d	ft5,fs9,fa2,ft5
    80002984:	eac9fec3          	fmadd.d	ft9,fs3,fa2,ft9
    80002988:	b2c97b43          	fmadd.d	fs6,fs2,fa2,fs6
    8000298c:	c2c1fc43          	fmadd.d	fs8,ft3,fa2,fs8
    80002990:	3229f343          	fmadd.d	ft6,fs3,ft2,ft6
    80002994:	3a2973c3          	fmadd.d	ft7,fs2,ft2,ft7
    80002998:	016782b3          	add	t0,a5,s6
    8000299c:	01873587          	fld	fa1,24(a4)
    800029a0:	0082b607          	fld	fa2,8(t0)
    800029a4:	0102bc87          	fld	fs9,16(t0)
    800029a8:	0182b987          	fld	fs3,24(t0)
    800029ac:	0002ba07          	fld	fs4,0(t0)
    800029b0:	0202b187          	fld	ft3,32(t0)
    800029b4:	0186b687          	fld	fa3,24(a3)
    800029b8:	0185b087          	fld	ft1,24(a1)
    800029bc:	01863107          	fld	ft2,24(a2)
    800029c0:	db45f543          	fmadd.d	fa0,fa1,fs4,fs11
    800029c4:	7ac5fbc3          	fmadd.d	fs7,fa1,fa2,fa5
    800029c8:	4395f443          	fmadd.d	fs0,fa1,fs9,fs0
    800029cc:	0235f043          	fmadd.d	ft0,fa1,ft3,ft0
    800029d0:	32167343          	fmadd.d	ft6,fa2,ft1,ft6
    800029d4:	3a1cf943          	fmadd.d	fs2,fs9,ft1,ft7
    800029d8:	fb35ffc3          	fmadd.d	ft11,fa1,fs3,ft11
    800029dc:	8219f3c3          	fmadd.d	ft7,fs3,ft1,fa6
    800029e0:	d2d1f5c3          	fmadd.d	fa1,ft3,fa3,fs10
    800029e4:	8a11f843          	fmadd.d	fa6,ft3,ft1,fa7
    800029e8:	f2da7f43          	fmadd.d	ft10,fs4,fa3,ft10
    800029ec:	e2d67e43          	fmadd.d	ft8,fa2,fa3,ft8
    800029f0:	4adcf4c3          	fmadd.d	fs1,fs9,fa3,fs1
    800029f4:	22d9f243          	fmadd.d	ft4,fs3,fa3,ft4
    800029f8:	2a2a72c3          	fmadd.d	ft5,fs4,ft2,ft5
    800029fc:	ea267ec3          	fmadd.d	ft9,fa2,ft2,ft9
    80002a00:	b22cfb43          	fmadd.d	fs6,fs9,ft2,fs6
    80002a04:	c229fc43          	fmadd.d	fs8,fs3,ft2,fs8
    80002a08:	aa1a7a43          	fmadd.d	fs4,fs4,ft1,fs5
    80002a0c:	7221f143          	fmadd.d	ft2,ft3,ft2,fa4
    80002a10:	00fb88b3          	add	a7,s7,a5
    80002a14:	0206b187          	fld	ft3,32(a3)
    80002a18:	02063707          	fld	fa4,32(a2)
    80002a1c:	0205bd87          	fld	fs11,32(a1)
    80002a20:	02073607          	fld	fa2,32(a4)
    80002a24:	0008ba87          	fld	fs5,0(a7)
    80002a28:	0108bd07          	fld	fs10,16(a7)
    80002a2c:	0208b887          	fld	fa7,32(a7)
    80002a30:	0088b987          	fld	fs3,8(a7)
    80002a34:	0188bc87          	fld	fs9,24(a7)
    80002a38:	5a38f6c3          	fmadd.d	fa3,fa7,ft3,fa1
    80002a3c:	bb3677c3          	fmadd.d	fa5,fa2,fs3,fs7
    80002a40:	eae9fec3          	fmadd.d	ft9,fs3,fa4,ft9
    80002a44:	43a67bc3          	fmadd.d	fs7,fa2,fs10,fs0
    80002a48:	83b8f0c3          	fmadd.d	ft1,fa7,fs11,fa6
    80002a4c:	53567543          	fmadd.d	fa0,fa2,fs5,fa0
    80002a50:	fb967fc3          	fmadd.d	ft11,fa2,fs9,ft11
    80002a54:	f23aff43          	fmadd.d	ft10,fs5,ft3,ft10
    80002a58:	03167643          	fmadd.d	fa2,fa2,fa7,ft0
    80002a5c:	e239fe43          	fmadd.d	ft8,fs3,ft3,ft8
    80002a60:	4a3d74c3          	fmadd.d	fs1,fs10,ft3,fs1
    80002a64:	223cf243          	fmadd.d	ft4,fs9,ft3,ft4
    80002a68:	2aeaf2c3          	fmadd.d	ft5,fs5,fa4,ft5
    80002a6c:	b2ed7b43          	fmadd.d	fs6,fs10,fa4,fs6
    80002a70:	c2ecfc43          	fmadd.d	fs8,fs9,fa4,fs8
    80002a74:	12e8f143          	fmadd.d	ft2,fa7,fa4,ft2
    80002a78:	33b9f9c3          	fmadd.d	fs3,fs3,fs11,ft6
    80002a7c:	93bd7943          	fmadd.d	fs2,fs10,fs11,fs2
    80002a80:	3bbcfcc3          	fmadd.d	fs9,fs9,fs11,ft7
    80002a84:	a3bafa43          	fmadd.d	fs4,fs5,fs11,fs4
    80002a88:	015782b3          	add	t0,a5,s5
    80002a8c:	02873007          	fld	ft0,40(a4)
    80002a90:	0286b587          	fld	fa1,40(a3)
    80002a94:	02863707          	fld	fa4,40(a2)
    80002a98:	0285bd87          	fld	fs11,40(a1)
    80002a9c:	0002b187          	fld	ft3,0(t0)
    80002aa0:	0082b307          	fld	ft6,8(t0)
    80002aa4:	0102b387          	fld	ft7,16(t0)
    80002aa8:	0182b807          	fld	fa6,24(t0)
    80002aac:	0202b887          	fld	fa7,32(t0)
    80002ab0:	03070713          	addi	a4,a4,48
    80002ab4:	ba707443          	fmadd.d	fs0,ft0,ft7,fs7
    80002ab8:	52307543          	fmadd.d	fa0,ft0,ft3,fa0
    80002abc:	fb007fc3          	fmadd.d	ft11,ft0,fa6,ft11
    80002ac0:	f2b1ff43          	fmadd.d	ft10,ft3,fa1,ft10
    80002ac4:	4ab3f4c3          	fmadd.d	fs1,ft7,fa1,fs1
    80002ac8:	22b87d43          	fmadd.d	fs10,fa6,fa1,ft4
    80002acc:	7a6077c3          	fmadd.d	fa5,ft0,ft6,fa5
    80002ad0:	e2b37e43          	fmadd.d	ft8,ft6,fa1,ft8
    80002ad4:	63107043          	fmadd.d	ft0,ft0,fa7,fa2
    80002ad8:	6ab8f5c3          	fmadd.d	fa1,fa7,fa1,fa3
    80002adc:	2ae1f2c3          	fmadd.d	ft5,ft3,fa4,ft5
    80002ae0:	eae37bc3          	fmadd.d	fs7,ft6,fa4,ft9
    80002ae4:	c2e87c43          	fmadd.d	fs8,fa6,fa4,fs8
    80002ae8:	b2e3fec3          	fmadd.d	ft9,ft7,fa4,fs6
    80002aec:	12e8f643          	fmadd.d	fa2,fa7,fa4,ft2
    80002af0:	a3b1fac3          	fmadd.d	fs5,ft3,fs11,fs4
    80002af4:	93b3f3c3          	fmadd.d	ft7,ft7,fs11,fs2
    80002af8:	9bb371c3          	fmadd.d	ft3,ft6,fs11,fs3
    80002afc:	cbb87843          	fmadd.d	fa6,fa6,fs11,fs9
    80002b00:	0bb8f8c3          	fmadd.d	fa7,fa7,fs11,ft1
    80002b04:	012787b3          	add	a5,a5,s2
    80002b08:	03068693          	addi	a3,a3,48
    80002b0c:	03060613          	addi	a2,a2,48
    80002b10:	03058593          	addi	a1,a1,48
    80002b14:	d30760e3          	bltu	a4,a6,80002834 <mm_cb+0x1630>
    80002b18:	228409d3          	fmv.d	fs3,fs0
    80002b1c:	23ff8953          	fmv.d	fs2,ft11
    80002b20:	23ce0453          	fmv.d	fs0,ft8
    80002b24:	22948fd3          	fmv.d	ft11,fs1
    80002b28:	22f78a53          	fmv.d	fs4,fa5
    80002b2c:	23ef04d3          	fmv.d	fs1,ft10
    80002b30:	22528e53          	fmv.d	ft8,ft5
    80002b34:	235a8253          	fmv.d	ft4,fs5
    80002b38:	23ad0f53          	fmv.d	ft10,fs10
    80002b3c:	238c02d3          	fmv.d	ft5,fs8
    80002b40:	22a50ad3          	fmv.d	fs5,fa0
    80002b44:	22738153          	fmv.d	ft2,ft7
    80002b48:	230806d3          	fmv.d	fa3,fa6
    80002b4c:	231887d3          	fmv.d	fa5,fa7
    80002b50:	00008893          	mv	a7,ra
    80002b54:	000e0093          	mv	ra,t3
    80002b58:	006082b3          	add	t0,ra,t1
    80002b5c:	0b187063          	bleu	a7,a6,80002bfc <mm_cb+0x19f8>
    80002b60:	01a98733          	add	a4,s3,s10
    80002b64:	01b987b3          	add	a5,s3,s11
    80002b68:	01d986b3          	add	a3,s3,t4
    80002b6c:	00080e13          	mv	t3,a6
    80002b70:	000e3c87          	fld	fs9,0(t3)
    80002b74:	00073087          	fld	ft1,0(a4)
    80002b78:	0007bd87          	fld	fs11,0(a5)
    80002b7c:	0006b707          	fld	fa4,0(a3)
    80002b80:	0002b307          	fld	ft6,0(t0)
    80002b84:	0082bb07          	fld	fs6,8(t0)
    80002b88:	0102b507          	fld	fa0,16(t0)
    80002b8c:	0182bd07          	fld	fs10,24(t0)
    80002b90:	0202bc07          	fld	fs8,32(t0)
    80002b94:	008e0e13          	addi	t3,t3,8
    80002b98:	aa6cfac3          	fmadd.d	fs5,fs9,ft6,fs5
    80002b9c:	a36cfa43          	fmadd.d	fs4,fs9,fs6,fs4
    80002ba0:	9aacf9c3          	fmadd.d	fs3,fs9,fa0,fs3
    80002ba4:	93acf943          	fmadd.d	fs2,fs9,fs10,fs2
    80002ba8:	038cf043          	fmadd.d	ft0,fs9,fs8,ft0
    80002bac:	4a1374c3          	fmadd.d	fs1,ft6,ft1,fs1
    80002bb0:	421b7443          	fmadd.d	fs0,fs6,ft1,fs0
    80002bb4:	fa157fc3          	fmadd.d	ft11,fa0,ft1,ft11
    80002bb8:	f21d7f43          	fmadd.d	ft10,fs10,ft1,ft10
    80002bbc:	5a1c75c3          	fmadd.d	fa1,fs8,ft1,fa1
    80002bc0:	e3b37e43          	fmadd.d	ft8,ft6,fs11,ft8
    80002bc4:	bbbb7bc3          	fmadd.d	fs7,fs6,fs11,fs7
    80002bc8:	ebb57ec3          	fmadd.d	ft9,fa0,fs11,ft9
    80002bcc:	2bbd72c3          	fmadd.d	ft5,fs10,fs11,ft5
    80002bd0:	63bc7643          	fmadd.d	fa2,fs8,fs11,fa2
    80002bd4:	22e37243          	fmadd.d	ft4,ft6,fa4,ft4
    80002bd8:	1aeb71c3          	fmadd.d	ft3,fs6,fa4,ft3
    80002bdc:	12e57143          	fmadd.d	ft2,fa0,fa4,ft2
    80002be0:	6aed76c3          	fmadd.d	fa3,fs10,fa4,fa3
    80002be4:	7aec77c3          	fmadd.d	fa5,fs8,fa4,fa5
    80002be8:	014282b3          	add	t0,t0,s4
    80002bec:	00870713          	addi	a4,a4,8
    80002bf0:	00878793          	addi	a5,a5,8
    80002bf4:	00868693          	addi	a3,a3,8
    80002bf8:	f71e6ce3          	bltu	t3,a7,80002b70 <mm_cb+0x196c>
    80002bfc:	01553027          	fsd	fs5,0(a0)
    80002c00:	01453427          	fsd	fs4,8(a0)
    80002c04:	01353827          	fsd	fs3,16(a0)
    80002c08:	01253c27          	fsd	fs2,24(a0)
    80002c0c:	02053027          	fsd	ft0,32(a0)
    80002c10:	0c953427          	fsd	fs1,200(a0)
    80002c14:	0c853827          	fsd	fs0,208(a0)
    80002c18:	0df53c27          	fsd	ft11,216(a0)
    80002c1c:	0fe53027          	fsd	ft10,224(a0)
    80002c20:	0eb53427          	fsd	fa1,232(a0)
    80002c24:	19c53827          	fsd	ft8,400(a0)
    80002c28:	19753c27          	fsd	fs7,408(a0)
    80002c2c:	1bd53027          	fsd	ft9,416(a0)
    80002c30:	1a553427          	fsd	ft5,424(a0)
    80002c34:	1ac53827          	fsd	fa2,432(a0)
    80002c38:	24453c27          	fsd	ft4,600(a0)
    80002c3c:	26353027          	fsd	ft3,608(a0)
    80002c40:	26253427          	fsd	ft2,616(a0)
    80002c44:	26d53827          	fsd	fa3,624(a0)
    80002c48:	26f53c27          	fsd	fa5,632(a0)
    80002c4c:	02830313          	addi	t1,t1,40
    80002c50:	02850513          	addi	a0,a0,40
    80002c54:	b26f1ce3          	bne	t5,t1,8000278c <mm_cb+0x1588>
    80002c58:	f2043803          	ld	a6,-224(s0)
    80002c5c:	f1843703          	ld	a4,-232(s0)
    80002c60:	e9043603          	ld	a2,-368(s0)
    80002c64:	ec743c23          	sd	t2,-296(s0)
    80002c68:	01900393          	li	t2,25
    80002c6c:	000f8893          	mv	a7,t6
    80002c70:	00048693          	mv	a3,s1
    80002c74:	00713023          	sd	t2,0(sp)
    80002c78:	000f0793          	mv	a5,t5
    80002c7c:	efe43023          	sd	t5,-288(s0)
    80002c80:	00000593          	li	a1,0
    80002c84:	320f8f13          	addi	t5,t6,800
    80002c88:	00400513          	li	a0,4
    80002c8c:	e5d43423          	sd	t4,-440(s0)
    80002c90:	efe43423          	sd	t5,-280(s0)
    80002c94:	ffffe097          	auipc	ra,0xffffe
    80002c98:	3b4080e7          	jalr	948(ra) # 80001048 <mm_naive>
    80002c9c:	ed843383          	ld	t2,-296(s0)
    80002ca0:	e4843f83          	ld	t6,-440(s0)
    80002ca4:	e0843803          	ld	a6,-504(s0)
    80002ca8:	007484b3          	add	s1,s1,t2
    80002cac:	007f8eb3          	add	t4,t6,t2
    80002cb0:	ee843f83          	ld	t6,-280(s0)
    80002cb4:	007d0d33          	add	s10,s10,t2
    80002cb8:	007d8db3          	add	s11,s11,t2
    80002cbc:	ee043f03          	ld	t5,-288(s0)
    80002cc0:	abf81ae3          	bne	a6,t6,80002774 <mm_cb+0x1570>
    80002cc4:	da043503          	ld	a0,-608(s0)
    80002cc8:	f2043803          	ld	a6,-224(s0)
    80002ccc:	ec043783          	ld	a5,-320(s0)
    80002cd0:	f1843703          	ld	a4,-232(s0)
    80002cd4:	e5043683          	ld	a3,-432(s0)
    80002cd8:	e9043603          	ld	a2,-368(s0)
    80002cdc:	01900313          	li	t1,25
    80002ce0:	018508b3          	add	a7,a0,s8
    80002ce4:	00613023          	sd	t1,0(sp)
    80002ce8:	01900593          	li	a1,25
    80002cec:	00000513          	li	a0,0
    80002cf0:	000f0d93          	mv	s11,t5
    80002cf4:	ffffe097          	auipc	ra,0xffffe
    80002cf8:	354080e7          	jalr	852(ra) # 80001048 <mm_naive>
    80002cfc:	fcdfe06f          	j	80001cc8 <mm_cb+0xac4>
    80002d00:	f0043703          	ld	a4,-256(s0)
    80002d04:	80070263          	beqz	a4,80001d08 <mm_cb+0xb04>
    80002d08:	ec843683          	ld	a3,-312(s0)
    80002d0c:	da843783          	ld	a5,-600(s0)
    80002d10:	dc043483          	ld	s1,-576(s0)
    80002d14:	ec043023          	sd	zero,-320(s0)
    80002d18:	00d783b3          	add	t2,a5,a3
    80002d1c:	ea743423          	sd	t2,-344(s0)
    80002d20:	ec943423          	sd	s1,-312(s0)
    80002d24:	f0043d03          	ld	s10,-256(s0)
    80002d28:	ec043e83          	ld	t4,-320(s0)
    80002d2c:	01800f93          	li	t6,24
    80002d30:	41dd0833          	sub	a6,s10,t4
    80002d34:	ed043c23          	sd	a6,-296(s0)
    80002d38:	010ff663          	bleu	a6,t6,80002d44 <mm_cb+0x1b40>
    80002d3c:	01800f13          	li	t5,24
    80002d40:	ede43c23          	sd	t5,-296(s0)
    80002d44:	ed843503          	ld	a0,-296(s0)
    80002d48:	00600d93          	li	s11,6
    80002d4c:	e5843903          	ld	s2,-424(s0)
    80002d50:	03b55333          	divu	t1,a0,s11
    80002d54:	ea843483          	ld	s1,-344(s0)
    80002d58:	e8843883          	ld	a7,-376(s0)
    80002d5c:	ec843603          	ld	a2,-312(s0)
    80002d60:	e8043e03          	ld	t3,-384(s0)
    80002d64:	00990d33          	add	s10,s2,s1
    80002d68:	01a90db3          	add	s11,s2,s10
    80002d6c:	00351093          	slli	ra,a0,0x3
    80002d70:	00c885b3          	add	a1,a7,a2
    80002d74:	00600293          	li	t0,6
    80002d78:	01b903b3          	add	t2,s2,s11
    80002d7c:	e0143423          	sd	ra,-504(s0)
    80002d80:	e4b43423          	sd	a1,-440(s0)
    80002d84:	efc43423          	sd	t3,-280(s0)
    80002d88:	ee543023          	sd	t0,-288(s0)
    80002d8c:	026a06b3          	mul	a3,s4,t1
    80002d90:	00131713          	slli	a4,t1,0x1
    80002d94:	006707b3          	add	a5,a4,t1
    80002d98:	00479913          	slli	s2,a5,0x4
    80002d9c:	ded43023          	sd	a3,-544(s0)
    80002da0:	f0843e83          	ld	t4,-248(s0)
    80002da4:	500e8063          	beqz	t4,800032a4 <mm_cb+0x20a0>
    80002da8:	dd043f83          	ld	t6,-560(s0)
    80002dac:	ee843883          	ld	a7,-280(s0)
    80002db0:	e0843f03          	ld	t5,-504(s0)
    80002db4:	00990e33          	add	t3,s2,s1
    80002db8:	011f8833          	add	a6,t6,a7
    80002dbc:	010f8533          	add	a0,t6,a6
    80002dc0:	009f0eb3          	add	t4,t5,s1
    80002dc4:	00af8333          	add	t1,t6,a0
    80002dc8:	de043f03          	ld	t5,-544(s0)
    80002dcc:	ec843f83          	ld	t6,-312(s0)
    80002dd0:	00000293          	li	t0,0
    80002dd4:	000f8793          	mv	a5,t6
    80002dd8:	0008ba07          	fld	fs4,0(a7)
    80002ddc:	0088b987          	fld	fs3,8(a7)
    80002de0:	0108b907          	fld	fs2,16(a7)
    80002de4:	0188b487          	fld	fs1,24(a7)
    80002de8:	0208b507          	fld	fa0,32(a7)
    80002dec:	00083407          	fld	fs0,0(a6)
    80002df0:	00883f87          	fld	ft11,8(a6)
    80002df4:	01083f07          	fld	ft10,16(a6)
    80002df8:	01883e87          	fld	ft9,24(a6)
    80002dfc:	02083587          	fld	fa1,32(a6)
    80002e00:	00053e07          	fld	ft8,0(a0)
    80002e04:	00853b07          	fld	fs6,8(a0)
    80002e08:	01053a87          	fld	fs5,16(a0)
    80002e0c:	01853187          	fld	ft3,24(a0)
    80002e10:	02053687          	fld	fa3,32(a0)
    80002e14:	00033107          	fld	ft2,0(t1)
    80002e18:	00833087          	fld	ft1,8(t1)
    80002e1c:	01033007          	fld	ft0,16(t1)
    80002e20:	01833707          	fld	fa4,24(t1)
    80002e24:	02033787          	fld	fa5,32(t1)
    80002e28:	37c4f463          	bleu	t3,s1,80003190 <mm_cb+0x1f8c>
    80002e2c:	23ef0dd3          	fmv.d	fs11,ft10
    80002e30:	220002d3          	fmv.d	ft5,ft0
    80002e34:	22948f53          	fmv.d	ft10,fs1
    80002e38:	22f783d3          	fmv.d	ft7,fa5
    80002e3c:	23ff84d3          	fmv.d	fs1,ft11
    80002e40:	23de8653          	fmv.d	fa2,ft9
    80002e44:	23290fd3          	fmv.d	ft11,fs2
    80002e48:	236b08d3          	fmv.d	fa7,fs6
    80002e4c:	22108253          	fmv.d	ft4,ft1
    80002e50:	234a0053          	fmv.d	ft0,fs4
    80002e54:	22e70353          	fmv.d	ft6,fa4
    80002e58:	233987d3          	fmv.d	fa5,fs3
    80002e5c:	00038593          	mv	a1,t2
    80002e60:	000d8613          	mv	a2,s11
    80002e64:	000d0693          	mv	a3,s10
    80002e68:	00048713          	mv	a4,s1
    80002e6c:	f3d43423          	sd	t4,-216(s0)
    80002e70:	00038093          	mv	ra,t2
    80002e74:	00073d07          	fld	fs10,0(a4)
    80002e78:	0006b807          	fld	fa6,0(a3)
    80002e7c:	00063a07          	fld	fs4,0(a2)
    80002e80:	0005bc87          	fld	fs9,0(a1)
    80002e84:	0007b707          	fld	fa4,0(a5)
    80002e88:	0087bc07          	fld	fs8,8(a5)
    80002e8c:	0107bb07          	fld	fs6,16(a5)
    80002e90:	0187b987          	fld	fs3,24(a5)
    80002e94:	0207b087          	fld	ft1,32(a5)
    80002e98:	43077ec3          	fmadd.d	ft9,fa4,fa6,fs0
    80002e9c:	8b4c78c3          	fmadd.d	fa7,fs8,fs4,fa7
    80002ea0:	1b49fbc3          	fmadd.d	fs7,fs3,fs4,ft3
    80002ea4:	6b40f6c3          	fmadd.d	fa3,ft1,fs4,fa3
    80002ea8:	02ed7043          	fmadd.d	ft0,fs10,fa4,ft0
    80002eac:	7b8d77c3          	fmadd.d	fa5,fs10,fs8,fa5
    80002eb0:	fb6d7fc3          	fmadd.d	ft11,fs10,fs6,ft11
    80002eb4:	f33d7f43          	fmadd.d	ft10,fs10,fs3,ft10
    80002eb8:	521d7543          	fmadd.d	fa0,fs10,ft1,fa0
    80002ebc:	4b0c74c3          	fmadd.d	fs1,fs8,fa6,fs1
    80002ec0:	e3477d43          	fmadd.d	fs10,fa4,fs4,ft8
    80002ec4:	db0b7dc3          	fmadd.d	fs11,fs6,fa6,fs11
    80002ec8:	6309f643          	fmadd.d	fa2,fs3,fa6,fa2
    80002ecc:	5b00f5c3          	fmadd.d	fa1,ft1,fa6,fa1
    80002ed0:	ab4b7ac3          	fmadd.d	fs5,fs6,fs4,fs5
    80002ed4:	13977143          	fmadd.d	ft2,fa4,fs9,ft2
    80002ed8:	239c7243          	fmadd.d	ft4,fs8,fs9,ft4
    80002edc:	2b9b72c3          	fmadd.d	ft5,fs6,fs9,ft5
    80002ee0:	3399f343          	fmadd.d	ft6,fs3,fs9,ft6
    80002ee4:	3b90f3c3          	fmadd.d	ft7,ft1,fs9,ft7
    80002ee8:	013783b3          	add	t2,a5,s3
    80002eec:	00873407          	fld	fs0,8(a4)
    80002ef0:	0086be07          	fld	ft8,8(a3)
    80002ef4:	00863187          	fld	ft3,8(a2)
    80002ef8:	0085b907          	fld	fs2,8(a1)
    80002efc:	0003bc87          	fld	fs9,0(t2)
    80002f00:	0083bc07          	fld	fs8,8(t2)
    80002f04:	0103ba07          	fld	fs4,16(t2)
    80002f08:	0183bb07          	fld	fs6,24(t2)
    80002f0c:	0203b987          	fld	fs3,32(t2)
    80002f10:	dbca7dc3          	fmadd.d	fs11,fs4,ft8,fs11
    80002f14:	63cb7643          	fmadd.d	fa2,fs6,ft8,fa2
    80002f18:	6a39f743          	fmadd.d	fa4,fs3,ft3,fa3
    80002f1c:	5bc9f5c3          	fmadd.d	fa1,fs3,ft8,fa1
    80002f20:	d23cf843          	fmadd.d	fa6,fs9,ft3,fs10
    80002f24:	03947043          	fmadd.d	ft0,fs0,fs9,ft0
    80002f28:	8a3c7d43          	fmadd.d	fs10,fs8,ft3,fa7
    80002f2c:	7b8477c3          	fmadd.d	fa5,fs0,fs8,fa5
    80002f30:	fb447fc3          	fmadd.d	ft11,fs0,fs4,ft11
    80002f34:	f3647f43          	fmadd.d	ft10,fs0,fs6,ft10
    80002f38:	53347543          	fmadd.d	fa0,fs0,fs3,fa0
    80002f3c:	ebccfec3          	fmadd.d	ft9,fs9,ft8,ft9
    80002f40:	4bcc74c3          	fmadd.d	fs1,fs8,ft8,fs1
    80002f44:	aa3a7ac3          	fmadd.d	fs5,fs4,ft3,fs5
    80002f48:	ba3b7bc3          	fmadd.d	fs7,fs6,ft3,fs7
    80002f4c:	132cf143          	fmadd.d	ft2,fs9,fs2,ft2
    80002f50:	232c7243          	fmadd.d	ft4,fs8,fs2,ft4
    80002f54:	2b2a72c3          	fmadd.d	ft5,fs4,fs2,ft5
    80002f58:	332b7343          	fmadd.d	ft6,fs6,fs2,ft6
    80002f5c:	3b29f3c3          	fmadd.d	ft7,fs3,fs2,ft7
    80002f60:	00fc8eb3          	add	t4,s9,a5
    80002f64:	01073887          	fld	fa7,16(a4)
    80002f68:	0106b687          	fld	fa3,16(a3)
    80002f6c:	0105be07          	fld	ft8,16(a1)
    80002f70:	01063087          	fld	ft1,16(a2)
    80002f74:	008eba07          	fld	fs4,8(t4)
    80002f78:	010ebb07          	fld	fs6,16(t4)
    80002f7c:	018eb907          	fld	fs2,24(t4)
    80002f80:	020ebc87          	fld	fs9,32(t4)
    80002f84:	000ebc07          	fld	fs8,0(t4)
    80002f88:	4ada74c3          	fmadd.d	fs1,fs4,fa3,fs1
    80002f8c:	dadb7443          	fmadd.d	fs0,fs6,fa3,fs11
    80002f90:	62d971c3          	fmadd.d	ft3,fs2,fa3,fa2
    80002f94:	5adcfdc3          	fmadd.d	fs11,fs9,fa3,fa1
    80002f98:	d21a7d43          	fmadd.d	fs10,fs4,ft1,fs10
    80002f9c:	13cc7143          	fmadd.d	ft2,fs8,ft8,ft2
    80002fa0:	0388f043          	fmadd.d	ft0,fa7,fs8,ft0
    80002fa4:	7b48f7c3          	fmadd.d	fa5,fa7,fs4,fa5
    80002fa8:	fb68ffc3          	fmadd.d	ft11,fa7,fs6,ft11
    80002fac:	f328ff43          	fmadd.d	ft10,fa7,fs2,ft10
    80002fb0:	5398f543          	fmadd.d	fa0,fa7,fs9,fa0
    80002fb4:	eadc7ec3          	fmadd.d	ft9,fs8,fa3,ft9
    80002fb8:	821c7843          	fmadd.d	fa6,fs8,ft1,fa6
    80002fbc:	aa1b7ac3          	fmadd.d	fs5,fs6,ft1,fs5
    80002fc0:	ba197bc3          	fmadd.d	fs7,fs2,ft1,fs7
    80002fc4:	23ca7243          	fmadd.d	ft4,fs4,ft8,ft4
    80002fc8:	721cf0c3          	fmadd.d	ft1,fs9,ft1,fa4
    80002fcc:	2bcb72c3          	fmadd.d	ft5,fs6,ft8,ft5
    80002fd0:	33c97343          	fmadd.d	ft6,fs2,ft8,ft6
    80002fd4:	3bccf3c3          	fmadd.d	ft7,fs9,ft8,ft7
    80002fd8:	016783b3          	add	t2,a5,s6
    80002fdc:	01873607          	fld	fa2,24(a4)
    80002fe0:	0083ba07          	fld	fs4,8(t2)
    80002fe4:	0103b987          	fld	fs3,16(t2)
    80002fe8:	0183b907          	fld	fs2,24(t2)
    80002fec:	0003bb07          	fld	fs6,0(t2)
    80002ff0:	0203bc07          	fld	fs8,32(t2)
    80002ff4:	01863687          	fld	fa3,24(a2)
    80002ff8:	0185b707          	fld	fa4,24(a1)
    80002ffc:	0186b587          	fld	fa1,24(a3)
    80003000:	d2da78c3          	fmadd.d	fa7,fs4,fa3,fs10
    80003004:	22ea7243          	fmadd.d	ft4,fs4,fa4,ft4
    80003008:	4aba7e43          	fmadd.d	ft8,fs4,fa1,fs1
    8000300c:	42b9f443          	fmadd.d	fs0,fs3,fa1,fs0
    80003010:	2ae9f2c3          	fmadd.d	ft5,fs3,fa4,ft5
    80003014:	32e97343          	fmadd.d	ft6,fs2,fa4,ft6
    80003018:	3aec73c3          	fmadd.d	ft7,fs8,fa4,ft7
    8000301c:	03667043          	fmadd.d	ft0,fa2,fs6,ft0
    80003020:	7b4677c3          	fmadd.d	fa5,fa2,fs4,fa5
    80003024:	fb367fc3          	fmadd.d	ft11,fa2,fs3,ft11
    80003028:	f3267f43          	fmadd.d	ft10,fa2,fs2,ft10
    8000302c:	53867543          	fmadd.d	fa0,fa2,fs8,fa0
    80003030:	eabb7ec3          	fmadd.d	ft9,fs6,fa1,ft9
    80003034:	1ab971c3          	fmadd.d	ft3,fs2,fa1,ft3
    80003038:	82db7843          	fmadd.d	fa6,fs6,fa3,fa6
    8000303c:	dabc75c3          	fmadd.d	fa1,fs8,fa1,fs11
    80003040:	aad9fac3          	fmadd.d	fs5,fs3,fa3,fs5
    80003044:	bad97bc3          	fmadd.d	fs7,fs2,fa3,fs7
    80003048:	0adc70c3          	fmadd.d	ft1,fs8,fa3,ft1
    8000304c:	12eb7b43          	fmadd.d	fs6,fs6,fa4,ft2
    80003050:	00fb8eb3          	add	t4,s7,a5
    80003054:	02073d87          	fld	fs11,32(a4)
    80003058:	0206ba07          	fld	fs4,32(a3)
    8000305c:	02063c07          	fld	fs8,32(a2)
    80003060:	0205bd07          	fld	fs10,32(a1)
    80003064:	000eb907          	fld	fs2,0(t4)
    80003068:	008eb987          	fld	fs3,8(t4)
    8000306c:	010ebc87          	fld	fs9,16(t4)
    80003070:	018eb487          	fld	fs1,24(t4)
    80003074:	020eb107          	fld	ft2,32(t4)
    80003078:	e349fe43          	fmadd.d	ft8,fs3,fs4,ft8
    8000307c:	1b44f1c3          	fmadd.d	ft3,fs1,fs4,ft3
    80003080:	522df643          	fmadd.d	fa2,fs11,ft2,fa0
    80003084:	5b4176c3          	fmadd.d	fa3,ft2,fs4,fa1
    80003088:	032df043          	fmadd.d	ft0,fs11,fs2,ft0
    8000308c:	7b3df7c3          	fmadd.d	fa5,fs11,fs3,fa5
    80003090:	fb9dffc3          	fmadd.d	ft11,fs11,fs9,ft11
    80003094:	f29dff43          	fmadd.d	ft10,fs11,fs1,ft10
    80003098:	eb497ec3          	fmadd.d	ft9,fs2,fs4,ft9
    8000309c:	434cfdc3          	fmadd.d	fs11,fs9,fs4,fs0
    800030a0:	83897843          	fmadd.d	fa6,fs2,fs8,fa6
    800030a4:	23a9fa43          	fmadd.d	fs4,fs3,fs10,ft4
    800030a8:	8b89f8c3          	fmadd.d	fa7,fs3,fs8,fa7
    800030ac:	ab8cfac3          	fmadd.d	fs5,fs9,fs8,fs5
    800030b0:	2bacf9c3          	fmadd.d	fs3,fs9,fs10,ft5
    800030b4:	bb84fbc3          	fmadd.d	fs7,fs1,fs8,fs7
    800030b8:	0b8170c3          	fmadd.d	ft1,ft2,fs8,ft1
    800030bc:	b3a97b43          	fmadd.d	fs6,fs2,fs10,fs6
    800030c0:	33a4f943          	fmadd.d	fs2,fs1,fs10,ft6
    800030c4:	3ba17d43          	fmadd.d	fs10,ft2,fs10,ft7
    800030c8:	015783b3          	add	t2,a5,s5
    800030cc:	02873507          	fld	fa0,40(a4)
    800030d0:	0286b587          	fld	fa1,40(a3)
    800030d4:	02863707          	fld	fa4,40(a2)
    800030d8:	0285bc07          	fld	fs8,40(a1)
    800030dc:	0003bc87          	fld	fs9,0(t2)
    800030e0:	0083b207          	fld	ft4,8(t2)
    800030e4:	0103b287          	fld	ft5,16(t2)
    800030e8:	0183b307          	fld	ft6,24(t2)
    800030ec:	0203b387          	fld	ft7,32(t2)
    800030f0:	03070713          	addi	a4,a4,48
    800030f4:	e2b274c3          	fmadd.d	fs1,ft4,fa1,ft8
    800030f8:	7a4577c3          	fmadd.d	fa5,fa0,ft4,fa5
    800030fc:	fa557fc3          	fmadd.d	ft11,fa0,ft5,ft11
    80003100:	f2657f43          	fmadd.d	ft10,fa0,ft6,ft10
    80003104:	dab2fdc3          	fmadd.d	fs11,ft5,fa1,fs11
    80003108:	03957043          	fmadd.d	ft0,fa0,fs9,ft0
    8000310c:	eabcf443          	fmadd.d	fs0,fs9,fa1,ft9
    80003110:	62757543          	fmadd.d	fa0,fa0,ft7,fa2
    80003114:	8ae278c3          	fmadd.d	fa7,ft4,fa4,fa7
    80003118:	1ab37643          	fmadd.d	fa2,ft6,fa1,ft3
    8000311c:	aae2fac3          	fmadd.d	fs5,ft5,fa4,fs5
    80003120:	6ab3f5c3          	fmadd.d	fa1,ft7,fa1,fa3
    80003124:	bae371c3          	fmadd.d	ft3,ft6,fa4,fs7
    80003128:	0ae3f6c3          	fmadd.d	fa3,ft7,fa4,ft1
    8000312c:	82ecfe43          	fmadd.d	ft8,fs9,fa4,fa6
    80003130:	b38cf143          	fmadd.d	ft2,fs9,fs8,fs6
    80003134:	a3827243          	fmadd.d	ft4,ft4,fs8,fs4
    80003138:	9b82f2c3          	fmadd.d	ft5,ft5,fs8,fs3
    8000313c:	93837343          	fmadd.d	ft6,ft6,fs8,fs2
    80003140:	d383f3c3          	fmadd.d	ft7,ft7,fs8,fs10
    80003144:	014787b3          	add	a5,a5,s4
    80003148:	03068693          	addi	a3,a3,48
    8000314c:	03060613          	addi	a2,a2,48
    80003150:	03058593          	addi	a1,a1,48
    80003154:	d3c760e3          	bltu	a4,t3,80002e74 <mm_cb+0x1c70>
    80003158:	22000a53          	fmv.d	fs4,ft0
    8000315c:	22f789d3          	fmv.d	fs3,fa5
    80003160:	23ff8953          	fmv.d	fs2,ft11
    80003164:	22c60ed3          	fmv.d	ft9,fa2
    80003168:	22948fd3          	fmv.d	ft11,fs1
    8000316c:	23188b53          	fmv.d	fs6,fa7
    80003170:	23ef04d3          	fmv.d	fs1,ft10
    80003174:	224200d3          	fmv.d	ft1,ft4
    80003178:	23bd8f53          	fmv.d	ft10,fs11
    8000317c:	22528053          	fmv.d	ft0,ft5
    80003180:	22630753          	fmv.d	fa4,ft6
    80003184:	227387d3          	fmv.d	fa5,ft7
    80003188:	f2843e83          	ld	t4,-216(s0)
    8000318c:	00008393          	mv	t2,ra
    80003190:	01ff0733          	add	a4,t5,t6
    80003194:	0bde7063          	bleu	t4,t3,80003234 <mm_cb+0x2030>
    80003198:	01a907b3          	add	a5,s2,s10
    8000319c:	01b90633          	add	a2,s2,s11
    800031a0:	007906b3          	add	a3,s2,t2
    800031a4:	000e0093          	mv	ra,t3
    800031a8:	0000bd07          	fld	fs10,0(ra)
    800031ac:	0007bc87          	fld	fs9,0(a5)
    800031b0:	00063d87          	fld	fs11,0(a2)
    800031b4:	0006b607          	fld	fa2,0(a3)
    800031b8:	00073c07          	fld	fs8,0(a4)
    800031bc:	00873b87          	fld	fs7,8(a4)
    800031c0:	01073887          	fld	fa7,16(a4)
    800031c4:	01873807          	fld	fa6,24(a4)
    800031c8:	02073207          	fld	ft4,32(a4)
    800031cc:	00808093          	addi	ra,ra,8
    800031d0:	a38d7a43          	fmadd.d	fs4,fs10,fs8,fs4
    800031d4:	9b7d79c3          	fmadd.d	fs3,fs10,fs7,fs3
    800031d8:	931d7943          	fmadd.d	fs2,fs10,fa7,fs2
    800031dc:	4b0d74c3          	fmadd.d	fs1,fs10,fa6,fs1
    800031e0:	524d7543          	fmadd.d	fa0,fs10,ft4,fa0
    800031e4:	439c7443          	fmadd.d	fs0,fs8,fs9,fs0
    800031e8:	fb9bffc3          	fmadd.d	ft11,fs7,fs9,ft11
    800031ec:	f398ff43          	fmadd.d	ft10,fa7,fs9,ft10
    800031f0:	eb987ec3          	fmadd.d	ft9,fa6,fs9,ft9
    800031f4:	5b9275c3          	fmadd.d	fa1,ft4,fs9,fa1
    800031f8:	e3bc7e43          	fmadd.d	ft8,fs8,fs11,ft8
    800031fc:	b3bbfb43          	fmadd.d	fs6,fs7,fs11,fs6
    80003200:	abb8fac3          	fmadd.d	fs5,fa7,fs11,fs5
    80003204:	1bb871c3          	fmadd.d	ft3,fa6,fs11,ft3
    80003208:	6bb276c3          	fmadd.d	fa3,ft4,fs11,fa3
    8000320c:	12cc7143          	fmadd.d	ft2,fs8,fa2,ft2
    80003210:	0acbf0c3          	fmadd.d	ft1,fs7,fa2,ft1
    80003214:	02c8f043          	fmadd.d	ft0,fa7,fa2,ft0
    80003218:	72c87743          	fmadd.d	fa4,fa6,fa2,fa4
    8000321c:	7ac277c3          	fmadd.d	fa5,ft4,fa2,fa5
    80003220:	01370733          	add	a4,a4,s3
    80003224:	00878793          	addi	a5,a5,8
    80003228:	00860613          	addi	a2,a2,8
    8000322c:	00868693          	addi	a3,a3,8
    80003230:	f7d0ece3          	bltu	ra,t4,800031a8 <mm_cb+0x1fa4>
    80003234:	0148b027          	fsd	fs4,0(a7)
    80003238:	0138b427          	fsd	fs3,8(a7)
    8000323c:	0128b827          	fsd	fs2,16(a7)
    80003240:	0098bc27          	fsd	fs1,24(a7)
    80003244:	02a8b027          	fsd	fa0,32(a7)
    80003248:	00883027          	fsd	fs0,0(a6)
    8000324c:	01f83427          	fsd	ft11,8(a6)
    80003250:	01e83827          	fsd	ft10,16(a6)
    80003254:	01d83c27          	fsd	ft9,24(a6)
    80003258:	02b83027          	fsd	fa1,32(a6)
    8000325c:	f0843583          	ld	a1,-248(s0)
    80003260:	01c53027          	fsd	ft8,0(a0)
    80003264:	01653427          	fsd	fs6,8(a0)
    80003268:	01553827          	fsd	fs5,16(a0)
    8000326c:	00353c27          	fsd	ft3,24(a0)
    80003270:	02d53027          	fsd	fa3,32(a0)
    80003274:	00233027          	fsd	ft2,0(t1)
    80003278:	00133427          	fsd	ft1,8(t1)
    8000327c:	00033827          	fsd	ft0,16(t1)
    80003280:	00e33c27          	fsd	fa4,24(t1)
    80003284:	02f33027          	fsd	fa5,32(t1)
    80003288:	00528293          	addi	t0,t0,5
    8000328c:	02888893          	addi	a7,a7,40
    80003290:	02880813          	addi	a6,a6,40
    80003294:	02850513          	addi	a0,a0,40
    80003298:	02830313          	addi	t1,t1,40
    8000329c:	028f8f93          	addi	t6,t6,40
    800032a0:	b2b2eae3          	bltu	t0,a1,80002dd4 <mm_cb+0x1bd0>
    800032a4:	ee043f03          	ld	t5,-288(s0)
    800032a8:	f2743423          	sd	t2,-216(s0)
    800032ac:	e8843e03          	ld	t3,-376(s0)
    800032b0:	ee843383          	ld	t2,-280(s0)
    800032b4:	00043e83          	ld	t4,0(s0)
    800032b8:	e4843783          	ld	a5,-440(s0)
    800032bc:	f1843703          	ld	a4,-232(s0)
    800032c0:	ed843603          	ld	a2,-296(s0)
    800032c4:	f2043803          	ld	a6,-224(s0)
    800032c8:	e1043583          	ld	a1,-496(s0)
    800032cc:	007e08b3          	add	a7,t3,t2
    800032d0:	00048693          	mv	a3,s1
    800032d4:	ffff0093          	addi	ra,t5,-1
    800032d8:	01d13023          	sd	t4,0(sp)
    800032dc:	00400513          	li	a0,4
    800032e0:	ee143023          	sd	ra,-288(s0)
    800032e4:	ffffe097          	auipc	ra,0xffffe
    800032e8:	d64080e7          	jalr	-668(ra) # 80001048 <mm_naive>
    800032ec:	ee843703          	ld	a4,-280(s0)
    800032f0:	e0043603          	ld	a2,-512(s0)
    800032f4:	e7843783          	ld	a5,-392(s0)
    800032f8:	f2843283          	ld	t0,-216(s0)
    800032fc:	ee043883          	ld	a7,-288(s0)
    80003300:	00c706b3          	add	a3,a4,a2
    80003304:	eed43423          	sd	a3,-280(s0)
    80003308:	00f484b3          	add	s1,s1,a5
    8000330c:	00fd0d33          	add	s10,s10,a5
    80003310:	00fd8db3          	add	s11,s11,a5
    80003314:	00f283b3          	add	t2,t0,a5
    80003318:	a80894e3          	bnez	a7,80002da0 <mm_cb+0x1b9c>
    8000331c:	00043803          	ld	a6,0(s0)
    80003320:	ec843d03          	ld	s10,-312(s0)
    80003324:	ea843483          	ld	s1,-344(s0)
    80003328:	ec043303          	ld	t1,-320(s0)
    8000332c:	e6043903          	ld	s2,-416(s0)
    80003330:	01013023          	sd	a6,0(sp)
    80003334:	dd843583          	ld	a1,-552(s0)
    80003338:	e4043883          	ld	a7,-448(s0)
    8000333c:	f2043803          	ld	a6,-224(s0)
    80003340:	f1843703          	ld	a4,-232(s0)
    80003344:	ed843603          	ld	a2,-296(s0)
    80003348:	00000513          	li	a0,0
    8000334c:	01830d93          	addi	s11,t1,24
    80003350:	000d0793          	mv	a5,s10
    80003354:	009906b3          	add	a3,s2,s1
    80003358:	edb43023          	sd	s11,-320(s0)
    8000335c:	ffffe097          	auipc	ra,0xffffe
    80003360:	cec080e7          	jalr	-788(ra) # 80001048 <mm_naive>
    80003364:	db043503          	ld	a0,-592(s0)
    80003368:	f0043e03          	ld	t3,-256(s0)
    8000336c:	0c048593          	addi	a1,s1,192
    80003370:	00ad0fb3          	add	t6,s10,a0
    80003374:	edf43423          	sd	t6,-312(s0)
    80003378:	eab43423          	sd	a1,-344(s0)
    8000337c:	9bcde4e3          	bltu	s11,t3,80002d24 <mm_cb+0x1b20>
    80003380:	989fe06f          	j	80001d08 <mm_cb+0xb04>
    80003384:	ec843803          	ld	a6,-312(s0)
    80003388:	e6043603          	ld	a2,-416(s0)
    8000338c:	00c804b3          	add	s1,a6,a2
    80003390:	e4943823          	sd	s1,-432(s0)
    80003394:	955fe06f          	j	80001ce8 <mm_cb+0xae4>

0000000080003398 <mm>:
    80003398:	e6010113          	addi	sp,sp,-416
    8000339c:	1a013e83          	ld	t4,416(sp)
    800033a0:	18113c23          	sd	ra,408(sp)
    800033a4:	18813823          	sd	s0,400(sp)
    800033a8:	18913423          	sd	s1,392(sp)
    800033ac:	19213023          	sd	s2,384(sp)
    800033b0:	17313c23          	sd	s3,376(sp)
    800033b4:	17413823          	sd	s4,368(sp)
    800033b8:	17513423          	sd	s5,360(sp)
    800033bc:	17613023          	sd	s6,352(sp)
    800033c0:	15713c23          	sd	s7,344(sp)
    800033c4:	15813823          	sd	s8,336(sp)
    800033c8:	15913423          	sd	s9,328(sp)
    800033cc:	15a13023          	sd	s10,320(sp)
    800033d0:	13b13c23          	sd	s11,312(sp)
    800033d4:	12813427          	fsd	fs0,296(sp)
    800033d8:	12913027          	fsd	fs1,288(sp)
    800033dc:	11213c27          	fsd	fs2,280(sp)
    800033e0:	11313827          	fsd	fs3,272(sp)
    800033e4:	11413427          	fsd	fs4,264(sp)
    800033e8:	11513027          	fsd	fs5,256(sp)
    800033ec:	0f613c27          	fsd	fs6,248(sp)
    800033f0:	0f713827          	fsd	fs7,240(sp)
    800033f4:	0f813427          	fsd	fs8,232(sp)
    800033f8:	0f913027          	fsd	fs9,224(sp)
    800033fc:	0da13c27          	fsd	fs10,216(sp)
    80003400:	0db13827          	fsd	fs11,208(sp)
    80003404:	03000313          	li	t1,48
    80003408:	03d13023          	sd	t4,32(sp)
    8000340c:	6ea36463          	bltu	t1,a0,80003af4 <mm+0x75c>
    80003410:	03200e13          	li	t3,50
    80003414:	6ebe6063          	bltu	t3,a1,80003af4 <mm+0x75c>
    80003418:	6cc36e63          	bltu	t1,a2,80003af4 <mm+0x75c>
    8000341c:	00060293          	mv	t0,a2
    80003420:	02c13823          	sd	a2,48(sp)
    80003424:	00500613          	li	a2,5
    80003428:	02c5ddb3          	divu	s11,a1,a2
    8000342c:	00068b93          	mv	s7,a3
    80003430:	0cd13023          	sd	a3,192(sp)
    80003434:	003e9b13          	slli	s6,t4,0x3
    80003438:	ffc57693          	andi	a3,a0,-4
    8000343c:	00371313          	slli	t1,a4,0x3
    80003440:	00078393          	mv	t2,a5
    80003444:	06f13423          	sd	a5,104(sp)
    80003448:	0d113423          	sd	a7,200(sp)
    8000344c:	05013023          	sd	a6,64(sp)
    80003450:	02e13c23          	sd	a4,56(sp)
    80003454:	0ab13c23          	sd	a1,184(sp)
    80003458:	0aa13823          	sd	a0,176(sp)
    8000345c:	02d13423          	sd	a3,40(sp)
    80003460:	0b613023          	sd	s6,160(sp)
    80003464:	0a613423          	sd	t1,168(sp)
    80003468:	00070f93          	mv	t6,a4
    8000346c:	00058f13          	mv	t5,a1
    80003470:	000e8d13          	mv	s10,t4
    80003474:	002d9793          	slli	a5,s11,0x2
    80003478:	01b78db3          	add	s11,a5,s11
    8000347c:	5c068263          	beqz	a3,80003a40 <mm+0x6a8>
    80003480:	00600413          	li	s0,6
    80003484:	0282de33          	divu	t3,t0,s0
    80003488:	00181493          	slli	s1,a6,0x1
    8000348c:	001e9713          	slli	a4,t4,0x1
    80003490:	010489b3          	add	s3,s1,a6
    80003494:	01d70a33          	add	s4,a4,t4
    80003498:	006b8c33          	add	s8,s7,t1
    8000349c:	003d9e93          	slli	t4,s11,0x3
    800034a0:	00281a93          	slli	s5,a6,0x2
    800034a4:	01d383b3          	add	t2,t2,t4
    800034a8:	00499913          	slli	s2,s3,0x4
    800034ac:	006c0cb3          	add	s9,s8,t1
    800034b0:	004d1593          	slli	a1,s10,0x4
    800034b4:	003a1693          	slli	a3,s4,0x3
    800034b8:	41db0b33          	sub	s6,s6,t4
    800034bc:	010a80b3          	add	ra,s5,a6
    800034c0:	41d687b3          	sub	a5,a3,t4
    800034c4:	00381413          	slli	s0,a6,0x3
    800034c8:	00481a13          	slli	s4,a6,0x4
    800034cc:	00399493          	slli	s1,s3,0x3
    800034d0:	04713823          	sd	t2,80(sp)
    800034d4:	00581993          	slli	s3,a6,0x5
    800034d8:	01d883b3          	add	t2,a7,t4
    800034dc:	00329813          	slli	a6,t0,0x3
    800034e0:	005d1293          	slli	t0,s10,0x5
    800034e4:	006c8d33          	add	s10,s9,t1
    800034e8:	41d58333          	sub	t1,a1,t4
    800034ec:	41b00533          	neg	a0,s11
    800034f0:	005f9f93          	slli	t6,t6,0x5
    800034f4:	00351893          	slli	a7,a0,0x3
    800034f8:	09613823          	sd	s6,144(sp)
    800034fc:	00309a93          	slli	s5,ra,0x3
    80003500:	07013c23          	sd	a6,120(sp)
    80003504:	07f13023          	sd	t6,96(sp)
    80003508:	04513c23          	sd	t0,88(sp)
    8000350c:	09113c23          	sd	a7,152(sp)
    80003510:	08613423          	sd	t1,136(sp)
    80003514:	08f13023          	sd	a5,128(sp)
    80003518:	00013823          	sd	zero,16(sp)
    8000351c:	02cf7f33          	remu	t5,t5,a2
    80003520:	001e1713          	slli	a4,t3,0x1
    80003524:	01c70eb3          	add	t4,a4,t3
    80003528:	004e9b13          	slli	s6,t4,0x4
    8000352c:	03c90e33          	mul	t3,s2,t3
    80003530:	05e13423          	sd	t5,72(sp)
    80003534:	07c13823          	sd	t3,112(sp)
    80003538:	4a0d8063          	beqz	s11,800039d8 <mm+0x640>
    8000353c:	09813083          	ld	ra,152(sp)
    80003540:	09013503          	ld	a0,144(sp)
    80003544:	07813603          	ld	a2,120(sp)
    80003548:	08813583          	ld	a1,136(sp)
    8000354c:	08013683          	ld	a3,128(sp)
    80003550:	00708333          	add	t1,ra,t2
    80003554:	06813f03          	ld	t5,104(sp)
    80003558:	07013083          	ld	ra,112(sp)
    8000355c:	007508b3          	add	a7,a0,t2
    80003560:	017b0e33          	add	t3,s6,s7
    80003564:	01760fb3          	add	t6,a2,s7
    80003568:	00758833          	add	a6,a1,t2
    8000356c:	00768533          	add	a0,a3,t2
    80003570:	00000293          	li	t0,0
    80003574:	000f0793          	mv	a5,t5
    80003578:	00033a07          	fld	fs4,0(t1)
    8000357c:	00833987          	fld	fs3,8(t1)
    80003580:	01033907          	fld	fs2,16(t1)
    80003584:	01833487          	fld	fs1,24(t1)
    80003588:	02033087          	fld	ft1,32(t1)
    8000358c:	0008b407          	fld	fs0,0(a7)
    80003590:	0088bf87          	fld	ft11,8(a7)
    80003594:	0108bf07          	fld	ft10,16(a7)
    80003598:	0188be87          	fld	ft9,24(a7)
    8000359c:	0208b007          	fld	ft0,32(a7)
    800035a0:	00083e07          	fld	ft8,0(a6)
    800035a4:	00883b07          	fld	fs6,8(a6)
    800035a8:	01083a87          	fld	fs5,16(a6)
    800035ac:	01883287          	fld	ft5,24(a6)
    800035b0:	02083607          	fld	fa2,32(a6)
    800035b4:	00053207          	fld	ft4,0(a0)
    800035b8:	00853187          	fld	ft3,8(a0)
    800035bc:	01053107          	fld	ft2,16(a0)
    800035c0:	01853687          	fld	fa3,24(a0)
    800035c4:	02053787          	fld	fa5,32(a0)
    800035c8:	31cbf063          	bleu	t3,s7,800038c8 <mm+0x530>
    800035cc:	22f78353          	fmv.d	ft6,fa5
    800035d0:	000d0593          	mv	a1,s10
    800035d4:	000c8613          	mv	a2,s9
    800035d8:	000c0693          	mv	a3,s8
    800035dc:	000b8713          	mv	a4,s7
    800035e0:	00073507          	fld	fa0,0(a4)
    800035e4:	0006b587          	fld	fa1,0(a3)
    800035e8:	00063707          	fld	fa4,0(a2)
    800035ec:	0005b387          	fld	ft7,0(a1)
    800035f0:	0007bc07          	fld	fs8,0(a5)
    800035f4:	0087bb87          	fld	fs7,8(a5)
    800035f8:	0107b887          	fld	fa7,16(a5)
    800035fc:	0187b787          	fld	fa5,24(a5)
    80003600:	0207b807          	fld	fa6,32(a5)
    80003604:	227c7243          	fmadd.d	ft4,fs8,ft7,ft4
    80003608:	a3857a43          	fmadd.d	fs4,fa0,fs8,fs4
    8000360c:	62e87cc3          	fmadd.d	fs9,fa6,fa4,fa2
    80003610:	9b7579c3          	fmadd.d	fs3,fa0,fs7,fs3
    80003614:	93157943          	fmadd.d	fs2,fa0,fa7,fs2
    80003618:	4af574c3          	fmadd.d	fs1,fa0,fa5,fs1
    8000361c:	0b0570c3          	fmadd.d	ft1,fa0,fa6,ft1
    80003620:	42bc7443          	fmadd.d	fs0,fs8,fa1,fs0
    80003624:	fabbffc3          	fmadd.d	ft11,fs7,fa1,ft11
    80003628:	f2b8ff43          	fmadd.d	ft10,fa7,fa1,ft10
    8000362c:	eab7fec3          	fmadd.d	ft9,fa5,fa1,ft9
    80003630:	02b87043          	fmadd.d	ft0,fa6,fa1,ft0
    80003634:	e2ec7e43          	fmadd.d	ft8,fs8,fa4,ft8
    80003638:	b2ebfb43          	fmadd.d	fs6,fs7,fa4,fs6
    8000363c:	aae8fac3          	fmadd.d	fs5,fa7,fa4,fs5
    80003640:	2ae7f2c3          	fmadd.d	ft5,fa5,fa4,ft5
    80003644:	1a7bf1c3          	fmadd.d	ft3,fs7,ft7,ft3
    80003648:	1278f143          	fmadd.d	ft2,fa7,ft7,ft2
    8000364c:	6a77f6c3          	fmadd.d	fa3,fa5,ft7,fa3
    80003650:	32787343          	fmadd.d	ft6,fa6,ft7,ft6
    80003654:	00f40eb3          	add	t4,s0,a5
    80003658:	00873d07          	fld	fs10,8(a4)
    8000365c:	0086bd87          	fld	fs11,8(a3)
    80003660:	00863607          	fld	fa2,8(a2)
    80003664:	0085b507          	fld	fa0,8(a1)
    80003668:	000eb587          	fld	fa1,0(t4)
    8000366c:	008ebc07          	fld	fs8,8(t4)
    80003670:	010ebb87          	fld	fs7,16(t4)
    80003674:	018eb887          	fld	fa7,24(t4)
    80003678:	020eb387          	fld	ft7,32(t4)
    8000367c:	a2bd7a43          	fmadd.d	fs4,fs10,fa1,fs4
    80003680:	9b8d79c3          	fmadd.d	fs3,fs10,fs8,fs3
    80003684:	cac3f743          	fmadd.d	fa4,ft7,fa2,fs9
    80003688:	937d7943          	fmadd.d	fs2,fs10,fs7,fs2
    8000368c:	22a5fcc3          	fmadd.d	fs9,fa1,fa0,ft4
    80003690:	4b1d74c3          	fmadd.d	fs1,fs10,fa7,fs1
    80003694:	0a7d70c3          	fmadd.d	ft1,fs10,ft7,ft1
    80003698:	43b5f443          	fmadd.d	fs0,fa1,fs11,fs0
    8000369c:	fbbc7fc3          	fmadd.d	ft11,fs8,fs11,ft11
    800036a0:	f3bbff43          	fmadd.d	ft10,fs7,fs11,ft10
    800036a4:	ebb8fec3          	fmadd.d	ft9,fa7,fs11,ft9
    800036a8:	03b3f043          	fmadd.d	ft0,ft7,fs11,ft0
    800036ac:	e2c5fe43          	fmadd.d	ft8,fa1,fa2,ft8
    800036b0:	b2cc7b43          	fmadd.d	fs6,fs8,fa2,fs6
    800036b4:	aacbfac3          	fmadd.d	fs5,fs7,fa2,fs5
    800036b8:	2ac8f2c3          	fmadd.d	ft5,fa7,fa2,ft5
    800036bc:	1aac71c3          	fmadd.d	ft3,fs8,fa0,ft3
    800036c0:	12abf143          	fmadd.d	ft2,fs7,fa0,ft2
    800036c4:	6aa8f6c3          	fmadd.d	fa3,fa7,fa0,fa3
    800036c8:	32a3f343          	fmadd.d	ft6,ft7,fa0,ft6
    800036cc:	00fa0eb3          	add	t4,s4,a5
    800036d0:	01073207          	fld	ft4,16(a4)
    800036d4:	0106bd07          	fld	fs10,16(a3)
    800036d8:	0105b787          	fld	fa5,16(a1)
    800036dc:	01063d87          	fld	fs11,16(a2)
    800036e0:	000eb607          	fld	fa2,0(t4)
    800036e4:	008eb507          	fld	fa0,8(t4)
    800036e8:	010eb807          	fld	fa6,16(t4)
    800036ec:	018eb587          	fld	fa1,24(t4)
    800036f0:	020ebc07          	fld	fs8,32(t4)
    800036f4:	a2c27a43          	fmadd.d	fs4,ft4,fa2,fs4
    800036f8:	9aa279c3          	fmadd.d	fs3,ft4,fa0,fs3
    800036fc:	73bc7743          	fmadd.d	fa4,fs8,fs11,fa4
    80003700:	caf67cc3          	fmadd.d	fs9,fa2,fa5,fs9
    80003704:	32fc7343          	fmadd.d	ft6,fs8,fa5,ft6
    80003708:	93027943          	fmadd.d	fs2,ft4,fa6,fs2
    8000370c:	4ab274c3          	fmadd.d	fs1,ft4,fa1,fs1
    80003710:	0b8270c3          	fmadd.d	ft1,ft4,fs8,ft1
    80003714:	43a67443          	fmadd.d	fs0,fa2,fs10,fs0
    80003718:	fba57fc3          	fmadd.d	ft11,fa0,fs10,ft11
    8000371c:	f3a87f43          	fmadd.d	ft10,fa6,fs10,ft10
    80003720:	eba5fec3          	fmadd.d	ft9,fa1,fs10,ft9
    80003724:	03ac7043          	fmadd.d	ft0,fs8,fs10,ft0
    80003728:	e3b67e43          	fmadd.d	ft8,fa2,fs11,ft8
    8000372c:	b3b57b43          	fmadd.d	fs6,fa0,fs11,fs6
    80003730:	abb87ac3          	fmadd.d	fs5,fa6,fs11,fs5
    80003734:	2bb5f2c3          	fmadd.d	ft5,fa1,fs11,ft5
    80003738:	1af571c3          	fmadd.d	ft3,fa0,fa5,ft3
    8000373c:	12f87143          	fmadd.d	ft2,fa6,fa5,ft2
    80003740:	6af5f6c3          	fmadd.d	fa3,fa1,fa5,fa3
    80003744:	00978eb3          	add	t4,a5,s1
    80003748:	01873207          	fld	ft4,24(a4)
    8000374c:	000ebb87          	fld	fs7,0(t4)
    80003750:	008eb887          	fld	fa7,8(t4)
    80003754:	010ebd07          	fld	fs10,16(t4)
    80003758:	018eb387          	fld	ft7,24(t4)
    8000375c:	020ebd87          	fld	fs11,32(t4)
    80003760:	0186b507          	fld	fa0,24(a3)
    80003764:	0185b787          	fld	fa5,24(a1)
    80003768:	01863607          	fld	fa2,24(a2)
    8000376c:	a3727843          	fmadd.d	fa6,ft4,fs7,fs4
    80003770:	9b127c43          	fmadd.d	fs8,ft4,fa7,fs3
    80003774:	93a27943          	fmadd.d	fs2,ft4,fs10,fs2
    80003778:	4a7274c3          	fmadd.d	fs1,ft4,ft7,fs1
    8000377c:	0bb270c3          	fmadd.d	ft1,ft4,fs11,ft1
    80003780:	02adf043          	fmadd.d	ft0,fs11,fa0,ft0
    80003784:	cafbf243          	fmadd.d	ft4,fs7,fa5,fs9
    80003788:	1af8f1c3          	fmadd.d	ft3,fa7,fa5,ft3
    8000378c:	12fd7143          	fmadd.d	ft2,fs10,fa5,ft2
    80003790:	6af3f6c3          	fmadd.d	fa3,ft7,fa5,fa3
    80003794:	42abf443          	fmadd.d	fs0,fs7,fa0,fs0
    80003798:	faa8ffc3          	fmadd.d	ft11,fa7,fa0,ft11
    8000379c:	f2ad7f43          	fmadd.d	ft10,fs10,fa0,ft10
    800037a0:	eaa3fec3          	fmadd.d	ft9,ft7,fa0,ft9
    800037a4:	e2cbfe43          	fmadd.d	ft8,fs7,fa2,ft8
    800037a8:	b2c8fb43          	fmadd.d	fs6,fa7,fa2,fs6
    800037ac:	aacd7ac3          	fmadd.d	fs5,fs10,fa2,fs5
    800037b0:	2ac3f2c3          	fmadd.d	ft5,ft7,fa2,ft5
    800037b4:	32fdf3c3          	fmadd.d	ft7,fs11,fa5,ft6
    800037b8:	72cdf643          	fmadd.d	fa2,fs11,fa2,fa4
    800037bc:	00f98eb3          	add	t4,s3,a5
    800037c0:	02063707          	fld	fa4,32(a2)
    800037c4:	0205bd87          	fld	fs11,32(a1)
    800037c8:	02073507          	fld	fa0,32(a4)
    800037cc:	0206b587          	fld	fa1,32(a3)
    800037d0:	020eb307          	fld	ft6,32(t4)
    800037d4:	000ebb87          	fld	fs7,0(t4)
    800037d8:	008eb887          	fld	fa7,8(t4)
    800037dc:	010ebd07          	fld	fs10,16(t4)
    800037e0:	018ebc87          	fld	fs9,24(t4)
    800037e4:	83757a43          	fmadd.d	fs4,fa0,fs7,fa6
    800037e8:	c31579c3          	fmadd.d	fs3,fa0,fa7,fs8
    800037ec:	93a57843          	fmadd.d	fa6,fa0,fs10,fs2
    800037f0:	4b957c43          	fmadd.d	fs8,fa0,fs9,fs1
    800037f4:	42bbf443          	fmadd.d	fs0,fs7,fa1,fs0
    800037f8:	0a657543          	fmadd.d	fa0,fa0,ft6,ft1
    800037fc:	fab8ffc3          	fmadd.d	ft11,fa7,fa1,ft11
    80003800:	f2bd7f43          	fmadd.d	ft10,fs10,fa1,ft10
    80003804:	eabcfec3          	fmadd.d	ft9,fs9,fa1,ft9
    80003808:	e2ebfe43          	fmadd.d	ft8,fs7,fa4,ft8
    8000380c:	02b375c3          	fmadd.d	fa1,ft6,fa1,ft0
    80003810:	b2e8fb43          	fmadd.d	fs6,fa7,fa4,fs6
    80003814:	aaed7ac3          	fmadd.d	fs5,fs10,fa4,fs5
    80003818:	2aecf2c3          	fmadd.d	ft5,fs9,fa4,ft5
    8000381c:	62e37643          	fmadd.d	fa2,ft6,fa4,fa2
    80003820:	23bbfbc3          	fmadd.d	fs7,fs7,fs11,ft4
    80003824:	1bb8f8c3          	fmadd.d	fa7,fa7,fs11,ft3
    80003828:	13bd7d43          	fmadd.d	fs10,fs10,fs11,ft2
    8000382c:	6bbcfcc3          	fmadd.d	fs9,fs9,fs11,fa3
    80003830:	3bb377c3          	fmadd.d	fa5,ft6,fs11,ft7
    80003834:	01578eb3          	add	t4,a5,s5
    80003838:	02873087          	fld	ft1,40(a4)
    8000383c:	0286b007          	fld	ft0,40(a3)
    80003840:	02863387          	fld	ft7,40(a2)
    80003844:	0285b707          	fld	fa4,40(a1)
    80003848:	000eb207          	fld	ft4,0(t4)
    8000384c:	008eb187          	fld	ft3,8(t4)
    80003850:	010eb107          	fld	ft2,16(t4)
    80003854:	018eb687          	fld	fa3,24(t4)
    80003858:	020ebd87          	fld	fs11,32(t4)
    8000385c:	03070713          	addi	a4,a4,48
    80003860:	a240fa43          	fmadd.d	fs4,ft1,ft4,fs4
    80003864:	9a30f9c3          	fmadd.d	fs3,ft1,ft3,fs3
    80003868:	8220f943          	fmadd.d	fs2,ft1,ft2,fa6
    8000386c:	c2d0f4c3          	fmadd.d	fs1,ft1,fa3,fs8
    80003870:	42027443          	fmadd.d	fs0,ft4,ft0,fs0
    80003874:	fa01ffc3          	fmadd.d	ft11,ft3,ft0,ft11
    80003878:	f2017f43          	fmadd.d	ft10,ft2,ft0,ft10
    8000387c:	ea06fec3          	fmadd.d	ft9,fa3,ft0,ft9
    80003880:	e2727e43          	fmadd.d	ft8,ft4,ft7,ft8
    80003884:	b271fb43          	fmadd.d	fs6,ft3,ft7,fs6
    80003888:	aa717ac3          	fmadd.d	fs5,ft2,ft7,fs5
    8000388c:	2a76f2c3          	fmadd.d	ft5,fa3,ft7,ft5
    80003890:	53b0f0c3          	fmadd.d	ft1,ft1,fs11,fa0
    80003894:	5a0df043          	fmadd.d	ft0,fs11,ft0,fa1
    80003898:	627df643          	fmadd.d	fa2,fs11,ft7,fa2
    8000389c:	bae27243          	fmadd.d	ft4,ft4,fa4,fs7
    800038a0:	8ae1f1c3          	fmadd.d	ft3,ft3,fa4,fa7
    800038a4:	d2e17143          	fmadd.d	ft2,ft2,fa4,fs10
    800038a8:	cae6f6c3          	fmadd.d	fa3,fa3,fa4,fs9
    800038ac:	7aedf343          	fmadd.d	ft6,fs11,fa4,fa5
    800038b0:	012787b3          	add	a5,a5,s2
    800038b4:	03068693          	addi	a3,a3,48
    800038b8:	03060613          	addi	a2,a2,48
    800038bc:	03058593          	addi	a1,a1,48
    800038c0:	d3c760e3          	bltu	a4,t3,800035e0 <mm+0x248>
    800038c4:	226307d3          	fmv.d	fa5,ft6
    800038c8:	01e08733          	add	a4,ra,t5
    800038cc:	0bfe7063          	bleu	t6,t3,8000396c <mm+0x5d4>
    800038d0:	018b07b3          	add	a5,s6,s8
    800038d4:	019b0633          	add	a2,s6,s9
    800038d8:	01ab06b3          	add	a3,s6,s10
    800038dc:	000e0e93          	mv	t4,t3
    800038e0:	000ebd07          	fld	fs10,0(t4)
    800038e4:	0007b507          	fld	fa0,0(a5)
    800038e8:	00063587          	fld	fa1,0(a2)
    800038ec:	0006bc87          	fld	fs9,0(a3)
    800038f0:	00073c07          	fld	fs8,0(a4)
    800038f4:	00873b87          	fld	fs7,8(a4)
    800038f8:	01073887          	fld	fa7,16(a4)
    800038fc:	01873807          	fld	fa6,24(a4)
    80003900:	02073387          	fld	ft7,32(a4)
    80003904:	008e8e93          	addi	t4,t4,8
    80003908:	a38d7a43          	fmadd.d	fs4,fs10,fs8,fs4
    8000390c:	9b7d79c3          	fmadd.d	fs3,fs10,fs7,fs3
    80003910:	931d7943          	fmadd.d	fs2,fs10,fa7,fs2
    80003914:	4b0d74c3          	fmadd.d	fs1,fs10,fa6,fs1
    80003918:	0a7d70c3          	fmadd.d	ft1,fs10,ft7,ft1
    8000391c:	42ac7443          	fmadd.d	fs0,fs8,fa0,fs0
    80003920:	faabffc3          	fmadd.d	ft11,fs7,fa0,ft11
    80003924:	f2a8ff43          	fmadd.d	ft10,fa7,fa0,ft10
    80003928:	eaa87ec3          	fmadd.d	ft9,fa6,fa0,ft9
    8000392c:	02a3f043          	fmadd.d	ft0,ft7,fa0,ft0
    80003930:	e2bc7e43          	fmadd.d	ft8,fs8,fa1,ft8
    80003934:	b2bbfb43          	fmadd.d	fs6,fs7,fa1,fs6
    80003938:	aab8fac3          	fmadd.d	fs5,fa7,fa1,fs5
    8000393c:	2ab872c3          	fmadd.d	ft5,fa6,fa1,ft5
    80003940:	62b3f643          	fmadd.d	fa2,ft7,fa1,fa2
    80003944:	239c7243          	fmadd.d	ft4,fs8,fs9,ft4
    80003948:	1b9bf1c3          	fmadd.d	ft3,fs7,fs9,ft3
    8000394c:	1398f143          	fmadd.d	ft2,fa7,fs9,ft2
    80003950:	6b9876c3          	fmadd.d	fa3,fa6,fs9,fa3
    80003954:	7b93f7c3          	fmadd.d	fa5,ft7,fs9,fa5
    80003958:	00870733          	add	a4,a4,s0
    8000395c:	00878793          	addi	a5,a5,8
    80003960:	00860613          	addi	a2,a2,8
    80003964:	00868693          	addi	a3,a3,8
    80003968:	f7feece3          	bltu	t4,t6,800038e0 <mm+0x548>
    8000396c:	01433027          	fsd	fs4,0(t1)
    80003970:	01333427          	fsd	fs3,8(t1)
    80003974:	01233827          	fsd	fs2,16(t1)
    80003978:	00933c27          	fsd	fs1,24(t1)
    8000397c:	02133027          	fsd	ft1,32(t1)
    80003980:	0088b027          	fsd	fs0,0(a7)
    80003984:	01f8b427          	fsd	ft11,8(a7)
    80003988:	01e8b827          	fsd	ft10,16(a7)
    8000398c:	01d8bc27          	fsd	ft9,24(a7)
    80003990:	0208b027          	fsd	ft0,32(a7)
    80003994:	01c83027          	fsd	ft8,0(a6)
    80003998:	01683427          	fsd	fs6,8(a6)
    8000399c:	01583827          	fsd	fs5,16(a6)
    800039a0:	00583c27          	fsd	ft5,24(a6)
    800039a4:	02c83027          	fsd	fa2,32(a6)
    800039a8:	00453027          	fsd	ft4,0(a0)
    800039ac:	00353427          	fsd	ft3,8(a0)
    800039b0:	00253827          	fsd	ft2,16(a0)
    800039b4:	00d53c27          	fsd	fa3,24(a0)
    800039b8:	02f53027          	fsd	fa5,32(a0)
    800039bc:	00528293          	addi	t0,t0,5
    800039c0:	02830313          	addi	t1,t1,40
    800039c4:	02888893          	addi	a7,a7,40
    800039c8:	02880813          	addi	a6,a6,40
    800039cc:	02850513          	addi	a0,a0,40
    800039d0:	028f0f13          	addi	t5,t5,40
    800039d4:	bbb2e0e3          	bltu	t0,s11,80003574 <mm+0x1dc>
    800039d8:	01013e03          	ld	t3,16(sp)
    800039dc:	00038893          	mv	a7,t2
    800039e0:	00713c23          	sd	t2,24(sp)
    800039e4:	02013383          	ld	t2,32(sp)
    800039e8:	05013783          	ld	a5,80(sp)
    800039ec:	03813703          	ld	a4,56(sp)
    800039f0:	04813583          	ld	a1,72(sp)
    800039f4:	04013803          	ld	a6,64(sp)
    800039f8:	03013603          	ld	a2,48(sp)
    800039fc:	000b8693          	mv	a3,s7
    80003a00:	00713023          	sd	t2,0(sp)
    80003a04:	004e0093          	addi	ra,t3,4
    80003a08:	00400513          	li	a0,4
    80003a0c:	00113823          	sd	ra,16(sp)
    80003a10:	e38fd0ef          	jal	ra,80001048 <mm_naive>
    80003a14:	06013583          	ld	a1,96(sp)
    80003a18:	05813f83          	ld	t6,88(sp)
    80003a1c:	01813e83          	ld	t4,24(sp)
    80003a20:	02813703          	ld	a4,40(sp)
    80003a24:	01013783          	ld	a5,16(sp)
    80003a28:	00bb8bb3          	add	s7,s7,a1
    80003a2c:	01fe83b3          	add	t2,t4,t6
    80003a30:	00bc0c33          	add	s8,s8,a1
    80003a34:	00bc8cb3          	add	s9,s9,a1
    80003a38:	00bd0d33          	add	s10,s10,a1
    80003a3c:	aee7eee3          	bltu	a5,a4,80003538 <mm+0x1a0>
    80003a40:	02813403          	ld	s0,40(sp)
    80003a44:	0a013483          	ld	s1,160(sp)
    80003a48:	0a813a83          	ld	s5,168(sp)
    80003a4c:	0b013a03          	ld	s4,176(sp)
    80003a50:	02940933          	mul	s2,s0,s1
    80003a54:	02013983          	ld	s3,32(sp)
    80003a58:	0c813d83          	ld	s11,200(sp)
    80003a5c:	0c013683          	ld	a3,192(sp)
    80003a60:	408a0533          	sub	a0,s4,s0
    80003a64:	1b313023          	sd	s3,416(sp)
    80003a68:	04013803          	ld	a6,64(sp)
    80003a6c:	06813783          	ld	a5,104(sp)
    80003a70:	03813703          	ld	a4,56(sp)
    80003a74:	03013603          	ld	a2,48(sp)
    80003a78:	03540b33          	mul	s6,s0,s5
    80003a7c:	19013403          	ld	s0,400(sp)
    80003a80:	0b813583          	ld	a1,184(sp)
    80003a84:	012d88b3          	add	a7,s11,s2
    80003a88:	19813083          	ld	ra,408(sp)
    80003a8c:	18813483          	ld	s1,392(sp)
    80003a90:	18013903          	ld	s2,384(sp)
    80003a94:	17813983          	ld	s3,376(sp)
    80003a98:	17013a03          	ld	s4,368(sp)
    80003a9c:	16813a83          	ld	s5,360(sp)
    80003aa0:	15813b83          	ld	s7,344(sp)
    80003aa4:	15013c03          	ld	s8,336(sp)
    80003aa8:	14813c83          	ld	s9,328(sp)
    80003aac:	14013d03          	ld	s10,320(sp)
    80003ab0:	13813d83          	ld	s11,312(sp)
    80003ab4:	12813407          	fld	fs0,296(sp)
    80003ab8:	12013487          	fld	fs1,288(sp)
    80003abc:	11813907          	fld	fs2,280(sp)
    80003ac0:	11013987          	fld	fs3,272(sp)
    80003ac4:	10813a07          	fld	fs4,264(sp)
    80003ac8:	10013a87          	fld	fs5,256(sp)
    80003acc:	016686b3          	add	a3,a3,s6
    80003ad0:	16013b03          	ld	s6,352(sp)
    80003ad4:	0f813b07          	fld	fs6,248(sp)
    80003ad8:	0f013b87          	fld	fs7,240(sp)
    80003adc:	0e813c07          	fld	fs8,232(sp)
    80003ae0:	0e013c87          	fld	fs9,224(sp)
    80003ae4:	0d813d07          	fld	fs10,216(sp)
    80003ae8:	0d013d87          	fld	fs11,208(sp)
    80003aec:	1a010113          	addi	sp,sp,416
    80003af0:	d58fd06f          	j	80001048 <mm_naive>
    80003af4:	02013083          	ld	ra,32(sp)
    80003af8:	19013403          	ld	s0,400(sp)
    80003afc:	18813483          	ld	s1,392(sp)
    80003b00:	1a113023          	sd	ra,416(sp)
    80003b04:	18013903          	ld	s2,384(sp)
    80003b08:	19813083          	ld	ra,408(sp)
    80003b0c:	17813983          	ld	s3,376(sp)
    80003b10:	17013a03          	ld	s4,368(sp)
    80003b14:	16813a83          	ld	s5,360(sp)
    80003b18:	16013b03          	ld	s6,352(sp)
    80003b1c:	15813b83          	ld	s7,344(sp)
    80003b20:	15013c03          	ld	s8,336(sp)
    80003b24:	14813c83          	ld	s9,328(sp)
    80003b28:	14013d03          	ld	s10,320(sp)
    80003b2c:	13813d83          	ld	s11,312(sp)
    80003b30:	12813407          	fld	fs0,296(sp)
    80003b34:	12013487          	fld	fs1,288(sp)
    80003b38:	11813907          	fld	fs2,280(sp)
    80003b3c:	11013987          	fld	fs3,272(sp)
    80003b40:	10813a07          	fld	fs4,264(sp)
    80003b44:	10013a87          	fld	fs5,256(sp)
    80003b48:	0f813b07          	fld	fs6,248(sp)
    80003b4c:	0f013b87          	fld	fs7,240(sp)
    80003b50:	0e813c07          	fld	fs8,232(sp)
    80003b54:	0e013c87          	fld	fs9,224(sp)
    80003b58:	0d813d07          	fld	fs10,216(sp)
    80003b5c:	0d013d87          	fld	fs11,208(sp)
    80003b60:	1a010113          	addi	sp,sp,416
    80003b64:	ffffd317          	auipc	t1,0xffffd
    80003b68:	6a030067          	jr	1696(t1) # 80001204 <mm_cb>
    80003b6c:	0000                	unimp
	...

0000000080003b70 <barrier>:
    80003b70:	0ff0000f          	fence
    80003b74:	00022703          	lw	a4,0(tp) # 0 <_tdata_begin>
    80003b78:	a5418693          	addi	a3,gp,-1452 # 80004d3c <count.3501>
    80003b7c:	00100613          	li	a2,1
    80003b80:	00173313          	seqz	t1,a4
    80003b84:	00622023          	sw	t1,0(tp) # 0 <_tdata_begin>
    80003b88:	0f50000f          	fence	iorw,ow
    80003b8c:	04c6a3af          	amoadd.w.aq	t2,a2,(a3)
    80003b90:	fff5051b          	addiw	a0,a0,-1
    80003b94:	0003859b          	sext.w	a1,t2
    80003b98:	00b50e63          	beq	a0,a1,80003bb4 <barrier+0x44>
    80003b9c:	00022803          	lw	a6,0(tp) # 0 <_tdata_begin>
    80003ba0:	a5018893          	addi	a7,gp,-1456 # 80004d38 <sense.3500>
    80003ba4:	0008ae03          	lw	t3,0(a7)
    80003ba8:	ffc81ee3          	bne	a6,t3,80003ba4 <barrier+0x34>
    80003bac:	0ff0000f          	fence
    80003bb0:	00008067          	ret
    80003bb4:	00022e83          	lw	t4,0(tp) # 0 <_tdata_begin>
    80003bb8:	a401aa23          	sw	zero,-1452(gp) # 80004d3c <count.3501>
    80003bbc:	a5d1a823          	sw	t4,-1456(gp) # 80004d38 <sense.3500>
    80003bc0:	fedff06f          	j	80003bac <barrier+0x3c>

0000000080003bc4 <thread_entry>:
    80003bc4:	f8010113          	addi	sp,sp,-128
    80003bc8:	fffff7b7          	lui	a5,0xfffff
    80003bcc:	06113c23          	sd	ra,120(sp)
    80003bd0:	06813823          	sd	s0,112(sp)
    80003bd4:	06913423          	sd	s1,104(sp)
    80003bd8:	07213023          	sd	s2,96(sp)
    80003bdc:	05313c23          	sd	s3,88(sp)
    80003be0:	05413823          	sd	s4,80(sp)
    80003be4:	05513423          	sd	s5,72(sp)
    80003be8:	05613023          	sd	s6,64(sp)
    80003bec:	03713c23          	sd	s7,56(sp)
    80003bf0:	03813823          	sd	s8,48(sp)
    80003bf4:	03913423          	sd	s9,40(sp)
    80003bf8:	03a13023          	sd	s10,32(sp)
    80003bfc:	01b13c23          	sd	s11,24(sp)
    80003c00:	08010413          	addi	s0,sp,128
    80003c04:	df078713          	addi	a4,a5,-528 # ffffffffffffedf0 <__global_pointer$+0xffffffff7fff9b08>
    80003c08:	d3078093          	addi	ra,a5,-720
    80003c0c:	00e10133          	add	sp,sp,a4
    80003c10:	01010a13          	addi	s4,sp,16
    80003c14:	37ab72b7          	lui	t0,0x37ab7
    80003c18:	00110133          	add	sp,sp,ra
    80003c1c:	000018b7          	lui	a7,0x1
    80003c20:	01010993          	addi	s3,sp,16
    80003c24:	20088313          	addi	t1,a7,512 # 1200 <_tbss_end+0x117c>
    80003c28:	00110133          	add	sp,sp,ra
    80003c2c:	00229393          	slli	t2,t0,0x2
    80003c30:	00100613          	li	a2,1
    80003c34:	00050a93          	mv	s5,a0
    80003c38:	00058b13          	mv	s6,a1
    80003c3c:	01010913          	addi	s2,sp,16
    80003c40:	000a0493          	mv	s1,s4
    80003c44:	006a0c33          	add	s8,s4,t1
    80003c48:	000a0513          	mv	a0,s4
    80003c4c:	eef38093          	addi	ra,t2,-273
    80003c50:	03e61b93          	slli	s7,a2,0x3e
    80003c54:	0c050813          	addi	a6,a0,192
    80003c58:	0010d693          	srli	a3,ra,0x1
    80003c5c:	0016c5b3          	xor	a1,a3,ra
    80003c60:	03e59c93          	slli	s9,a1,0x3e
    80003c64:	017cfd33          	and	s10,s9,s7
    80003c68:	00dd6db3          	or	s11,s10,a3
    80003c6c:	001dde13          	srli	t3,s11,0x1
    80003c70:	01be4eb3          	xor	t4,t3,s11
    80003c74:	03ee9f13          	slli	t5,t4,0x3e
    80003c78:	017f7fb3          	and	t6,t5,s7
    80003c7c:	01cfe7b3          	or	a5,t6,t3
    80003c80:	0017d093          	srli	ra,a5,0x1
    80003c84:	00f0c733          	xor	a4,ra,a5
    80003c88:	03e71293          	slli	t0,a4,0x3e
    80003c8c:	0172f8b3          	and	a7,t0,s7
    80003c90:	0018e333          	or	t1,a7,ra
    80003c94:	00135393          	srli	t2,t1,0x1
    80003c98:	0063c633          	xor	a2,t2,t1
    80003c9c:	03e61693          	slli	a3,a2,0x3e
    80003ca0:	0176f5b3          	and	a1,a3,s7
    80003ca4:	0075ecb3          	or	s9,a1,t2
    80003ca8:	001cdd13          	srli	s10,s9,0x1
    80003cac:	d22df7d3          	fcvt.d.l	fa5,s11
    80003cb0:	019d4db3          	xor	s11,s10,s9
    80003cb4:	03ed9e13          	slli	t3,s11,0x3e
    80003cb8:	017e7eb3          	and	t4,t3,s7
    80003cbc:	01aeef33          	or	t5,t4,s10
    80003cc0:	001f5f93          	srli	t6,t5,0x1
    80003cc4:	d227f053          	fcvt.d.l	ft0,a5
    80003cc8:	01efc7b3          	xor	a5,t6,t5
    80003ccc:	03e79093          	slli	ra,a5,0x3e
    80003cd0:	0170f733          	and	a4,ra,s7
    80003cd4:	01f768b3          	or	a7,a4,t6
    80003cd8:	d22370d3          	fcvt.d.l	ft1,t1
    80003cdc:	0018d313          	srli	t1,a7,0x1
    80003ce0:	011343b3          	xor	t2,t1,a7
    80003ce4:	03e39613          	slli	a2,t2,0x3e
    80003ce8:	017676b3          	and	a3,a2,s7
    80003cec:	0066e5b3          	or	a1,a3,t1
    80003cf0:	d22cf153          	fcvt.d.l	ft2,s9
    80003cf4:	0015dc93          	srli	s9,a1,0x1
    80003cf8:	00bccd33          	xor	s10,s9,a1
    80003cfc:	03ed1d93          	slli	s11,s10,0x3e
    80003d00:	017dfe33          	and	t3,s11,s7
    80003d04:	d22f71d3          	fcvt.d.l	ft3,t5
    80003d08:	d228f253          	fcvt.d.l	ft4,a7
    80003d0c:	d225f2d3          	fcvt.d.l	ft5,a1
    80003d10:	019e60b3          	or	ra,t3,s9
    80003d14:	d220f353          	fcvt.d.l	ft6,ra
    80003d18:	00f53027          	fsd	fa5,0(a0)
    80003d1c:	00053427          	fsd	ft0,8(a0)
    80003d20:	00153827          	fsd	ft1,16(a0)
    80003d24:	00850293          	addi	t0,a0,8
    80003d28:	00253c27          	fsd	ft2,24(a0)
    80003d2c:	02353027          	fsd	ft3,32(a0)
    80003d30:	02453427          	fsd	ft4,40(a0)
    80003d34:	02553827          	fsd	ft5,48(a0)
    80003d38:	0262b827          	fsd	ft6,48(t0) # 37ab7030 <_tbss_end+0x37ab6fac>
    80003d3c:	04050513          	addi	a0,a0,64
    80003d40:	f0a81ce3          	bne	a6,a0,80003c58 <thread_entry+0x94>
    80003d44:	f10c18e3          	bne	s8,a6,80003c54 <thread_entry+0x90>
    80003d48:	00001837          	lui	a6,0x1
    80003d4c:	2c080b93          	addi	s7,a6,704 # 12c0 <_tbss_end+0x123c>
    80003d50:	00100c13          	li	s8,1
    80003d54:	017988b3          	add	a7,s3,s7
    80003d58:	00098313          	mv	t1,s3
    80003d5c:	03ec1393          	slli	t2,s8,0x3e
    80003d60:	0010de93          	srli	t4,ra,0x1
    80003d64:	001ecf33          	xor	t5,t4,ra
    80003d68:	03ef1f93          	slli	t6,t5,0x3e
    80003d6c:	007ff7b3          	and	a5,t6,t2
    80003d70:	01d7e0b3          	or	ra,a5,t4
    80003d74:	d220f3d3          	fcvt.d.l	ft7,ra
    80003d78:	0c830293          	addi	t0,t1,200
    80003d7c:	00830313          	addi	t1,t1,8
    80003d80:	fe733c27          	fsd	ft7,-8(t1)
    80003d84:	0010d613          	srli	a2,ra,0x1
    80003d88:	00164733          	xor	a4,a2,ra
    80003d8c:	03e71693          	slli	a3,a4,0x3e
    80003d90:	0076f5b3          	and	a1,a3,t2
    80003d94:	00c5ecb3          	or	s9,a1,a2
    80003d98:	001cdd13          	srli	s10,s9,0x1
    80003d9c:	019d4db3          	xor	s11,s10,s9
    80003da0:	03ed9e13          	slli	t3,s11,0x3e
    80003da4:	007e7533          	and	a0,t3,t2
    80003da8:	01a56833          	or	a6,a0,s10
    80003dac:	00185b93          	srli	s7,a6,0x1
    80003db0:	010bcc33          	xor	s8,s7,a6
    80003db4:	03ec1e93          	slli	t4,s8,0x3e
    80003db8:	007eff33          	and	t5,t4,t2
    80003dbc:	017f6fb3          	or	t6,t5,s7
    80003dc0:	001fd793          	srli	a5,t6,0x1
    80003dc4:	01f7c0b3          	xor	ra,a5,t6
    80003dc8:	03e09613          	slli	a2,ra,0x3e
    80003dcc:	00767733          	and	a4,a2,t2
    80003dd0:	00f765b3          	or	a1,a4,a5
    80003dd4:	0015d693          	srli	a3,a1,0x1
    80003dd8:	d22cf553          	fcvt.d.l	fa0,s9
    80003ddc:	00b6ccb3          	xor	s9,a3,a1
    80003de0:	03ec9d13          	slli	s10,s9,0x3e
    80003de4:	007d7db3          	and	s11,s10,t2
    80003de8:	00ddee33          	or	t3,s11,a3
    80003dec:	d22875d3          	fcvt.d.l	fa1,a6
    80003df0:	001e5813          	srli	a6,t3,0x1
    80003df4:	01c84533          	xor	a0,a6,t3
    80003df8:	03e51b93          	slli	s7,a0,0x3e
    80003dfc:	007bfeb3          	and	t4,s7,t2
    80003e00:	010eef33          	or	t5,t4,a6
    80003e04:	d22ff653          	fcvt.d.l	fa2,t6
    80003e08:	001f5f93          	srli	t6,t5,0x1
    80003e0c:	01efc7b3          	xor	a5,t6,t5
    80003e10:	03e79093          	slli	ra,a5,0x3e
    80003e14:	0070f633          	and	a2,ra,t2
    80003e18:	d225f6d3          	fcvt.d.l	fa3,a1
    80003e1c:	01f665b3          	or	a1,a2,t6
    80003e20:	0015d693          	srli	a3,a1,0x1
    80003e24:	00b6c733          	xor	a4,a3,a1
    80003e28:	03e71c93          	slli	s9,a4,0x3e
    80003e2c:	007cfd33          	and	s10,s9,t2
    80003e30:	d22e7753          	fcvt.d.l	fa4,t3
    80003e34:	d22f7853          	fcvt.d.l	fa6,t5
    80003e38:	d225f8d3          	fcvt.d.l	fa7,a1
    80003e3c:	00dd60b3          	or	ra,s10,a3
    80003e40:	d220fe53          	fcvt.d.l	ft8,ra
    80003e44:	00a33027          	fsd	fa0,0(t1)
    80003e48:	00b33427          	fsd	fa1,8(t1)
    80003e4c:	00c33827          	fsd	fa2,16(t1)
    80003e50:	00830c13          	addi	s8,t1,8
    80003e54:	00d33c27          	fsd	fa3,24(t1)
    80003e58:	02e33027          	fsd	fa4,32(t1)
    80003e5c:	03033427          	fsd	fa6,40(t1)
    80003e60:	03133827          	fsd	fa7,48(t1)
    80003e64:	03cc3827          	fsd	ft8,48(s8)
    80003e68:	04030313          	addi	t1,t1,64
    80003e6c:	f0629ce3          	bne	t0,t1,80003d84 <thread_entry+0x1c0>
    80003e70:	ee5898e3          	bne	a7,t0,80003d60 <thread_entry+0x19c>
    80003e74:	000012b7          	lui	t0,0x1
    80003e78:	2c028613          	addi	a2,t0,704 # 12c0 <_tbss_end+0x123c>
    80003e7c:	00000593          	li	a1,0
    80003e80:	00090513          	mv	a0,s2
    80003e84:	00001097          	auipc	ra,0x1
    80003e88:	99c080e7          	jalr	-1636(ra) # 80004820 <memset>
    80003e8c:	00800b93          	li	s7,8
    80003e90:	01900d13          	li	s10,25
    80003e94:	b0202c73          	csrr	s8,minstret
    80003e98:	b0002cf3          	csrr	s9,mcycle
    80003e9c:	01900813          	li	a6,25
    80003ea0:	01a13023          	sd	s10,0(sp)
    80003ea4:	00090893          	mv	a7,s2
    80003ea8:	00098793          	mv	a5,s3
    80003eac:	01800713          	li	a4,24
    80003eb0:	000a0693          	mv	a3,s4
    80003eb4:	01800613          	li	a2,24
    80003eb8:	01900593          	li	a1,25
    80003ebc:	01800513          	li	a0,24
    80003ec0:	fffff097          	auipc	ra,0xfffff
    80003ec4:	4d8080e7          	jalr	1240(ra) # 80003398 <mm>
    80003ec8:	b0202df3          	csrr	s11,minstret
    80003ecc:	b0002373          	csrr	t1,mcycle
    80003ed0:	fffb8b9b          	addiw	s7,s7,-1
    80003ed4:	fc0b90e3          	bnez	s7,80003e94 <thread_entry+0x2d0>
    80003ed8:	41930a33          	sub	s4,t1,s9
    80003edc:	0ff0000f          	fence
    80003ee0:	01800793          	li	a5,24
    80003ee4:	01900813          	li	a6,25
    80003ee8:	01800893          	li	a7,24
    80003eec:	00600713          	li	a4,6
    80003ef0:	00500693          	li	a3,5
    80003ef4:	00400613          	li	a2,4
    80003ef8:	000a8593          	mv	a1,s5
    80003efc:	00001517          	auipc	a0,0x1
    80003f00:	bfc50513          	addi	a0,a0,-1028 # 80004af8 <main+0x3c>
    80003f04:	7fc000ef          	jal	ra,80004700 <printf>
    80003f08:	418d863b          	subw	a2,s11,s8
    80003f0c:	000a8593          	mv	a1,s5
    80003f10:	00001517          	auipc	a0,0x1
    80003f14:	c1850513          	addi	a0,a0,-1000 # 80004b28 <main+0x6c>
    80003f18:	7e8000ef          	jal	ra,80004700 <printf>
    80003f1c:	000a061b          	sext.w	a2,s4
    80003f20:	000a8593          	mv	a1,s5
    80003f24:	00001517          	auipc	a0,0x1
    80003f28:	c1c50513          	addi	a0,a0,-996 # 80004b40 <main+0x84>
    80003f2c:	7d4000ef          	jal	ra,80004700 <printf>
    80003f30:	000073b7          	lui	t2,0x7
    80003f34:	08038613          	addi	a2,t2,128 # 7080 <_tbss_end+0x6ffc>
    80003f38:	000a8593          	mv	a1,s5
    80003f3c:	00001517          	auipc	a0,0x1
    80003f40:	c1450513          	addi	a0,a0,-1004 # 80004b50 <main+0x94>
    80003f44:	7bc000ef          	jal	ra,80004700 <printf>
    80003f48:	01b778b7          	lui	a7,0x1b77
    80003f4c:	40088e13          	addi	t3,a7,1024 # 1b77400 <_tbss_end+0x1b7737c>
    80003f50:	034e5633          	divu	a2,t3,s4
    80003f54:	000a8593          	mv	a1,s5
    80003f58:	00001517          	auipc	a0,0x1
    80003f5c:	c0850513          	addi	a0,a0,-1016 # 80004b60 <main+0xa4>
    80003f60:	7a0000ef          	jal	ra,80004700 <printf>
    80003f64:	00001837          	lui	a6,0x1
    80003f68:	00000613          	li	a2,0
    80003f6c:	00001797          	auipc	a5,0x1
    80003f70:	b7c7bf07          	fld	ft10,-1156(a5) # 80004ae8 <main+0x2c>
    80003f74:	00001797          	auipc	a5,0x1
    80003f78:	b7c7bf87          	fld	ft11,-1156(a5) # 80004af0 <main+0x34>
    80003f7c:	2c080d13          	addi	s10,a6,704 # 12c0 <_tbss_end+0x123c>
    80003f80:	01900e93          	li	t4,25
    80003f84:	01800f13          	li	t5,24
    80003f88:	00098f93          	mv	t6,s3
    80003f8c:	00090093          	mv	ra,s2
    80003f90:	00000693          	li	a3,0
    80003f94:	f2000ed3          	fmv.d.x	ft9,zero
    80003f98:	01af82b3          	add	t0,t6,s10
    80003f9c:	000f8593          	mv	a1,t6
    80003fa0:	00048513          	mv	a0,s1
    80003fa4:	00053787          	fld	fa5,0(a0)
    80003fa8:	0005b007          	fld	ft0,0(a1)
    80003fac:	00853107          	fld	ft2,8(a0)
    80003fb0:	0c85b187          	fld	ft3,200(a1)
    80003fb4:	ea07f0c3          	fmadd.d	ft1,fa5,ft0,ft9
    80003fb8:	01053287          	fld	ft5,16(a0)
    80003fbc:	1905b307          	fld	ft6,400(a1)
    80003fc0:	00850713          	addi	a4,a0,8
    80003fc4:	0c858793          	addi	a5,a1,200
    80003fc8:	01073507          	fld	fa0,16(a4)
    80003fcc:	1907b587          	fld	fa1,400(a5)
    80003fd0:	0a317243          	fmadd.d	ft4,ft2,ft3,ft1
    80003fd4:	01873687          	fld	fa3,24(a4)
    80003fd8:	2587b707          	fld	fa4,600(a5)
    80003fdc:	02073887          	fld	fa7,32(a4)
    80003fe0:	3207be07          	fld	ft8,800(a5)
    80003fe4:	02873787          	fld	fa5,40(a4)
    80003fe8:	3e87b007          	fld	ft0,1000(a5)
    80003fec:	2262f3c3          	fmadd.d	ft7,ft5,ft6,ft4
    80003ff0:	03073107          	fld	ft2,48(a4)
    80003ff4:	4b07b187          	fld	ft3,1200(a5)
    80003ff8:	64058593          	addi	a1,a1,1600
    80003ffc:	04050513          	addi	a0,a0,64
    80004000:	3ab57643          	fmadd.d	fa2,fa0,fa1,ft7
    80004004:	62e6f843          	fmadd.d	fa6,fa3,fa4,fa2
    80004008:	83c8fec3          	fmadd.d	ft9,fa7,ft8,fa6
    8000400c:	ea07f0c3          	fmadd.d	ft1,fa5,ft0,ft9
    80004010:	0a317ec3          	fmadd.d	ft9,ft2,ft3,ft1
    80004014:	f8b298e3          	bne	t0,a1,80003fa4 <thread_entry+0x3e0>
    80004018:	13eef253          	fmul.d	ft4,ft9,ft10
    8000401c:	0000b287          	fld	ft5,0(ra)
    80004020:	13f27353          	fmul.d	ft6,ft4,ft11
    80004024:	0a42f3d3          	fsub.d	ft7,ft5,ft4
    80004028:	22632553          	fabs.d	fa0,ft6
    8000402c:	2273a5d3          	fabs.d	fa1,ft7
    80004030:	a2b51c53          	flt.d	s8,fa0,fa1
    80004034:	020c1e63          	bnez	s8,80004070 <thread_entry+0x4ac>
    80004038:	00168693          	addi	a3,a3,1
    8000403c:	00808093          	addi	ra,ra,8
    80004040:	008f8f93          	addi	t6,t6,8
    80004044:	f5d698e3          	bne	a3,t4,80003f94 <thread_entry+0x3d0>
    80004048:	00160613          	addi	a2,a2,1
    8000404c:	0c048493          	addi	s1,s1,192
    80004050:	0c890913          	addi	s2,s2,200
    80004054:	f3e61ae3          	bne	a2,t5,80003f88 <thread_entry+0x3c4>
    80004058:	000b0513          	mv	a0,s6
    8000405c:	00000097          	auipc	ra,0x0
    80004060:	b14080e7          	jalr	-1260(ra) # 80003b70 <barrier>
    80004064:	00000513          	li	a0,0
    80004068:	00000097          	auipc	ra,0x0
    8000406c:	59c080e7          	jalr	1436(ra) # 80004604 <exit>
    80004070:	e20207d3          	fmv.x.d	a5,ft4
    80004074:	e2028753          	fmv.x.d	a4,ft5
    80004078:	000a8593          	mv	a1,s5
    8000407c:	00001517          	auipc	a0,0x1
    80004080:	afc50513          	addi	a0,a0,-1284 # 80004b78 <main+0xbc>
    80004084:	67c000ef          	jal	ra,80004700 <printf>
    80004088:	00100513          	li	a0,1
    8000408c:	00000097          	auipc	ra,0x0
    80004090:	578080e7          	jalr	1400(ra) # 80004604 <exit>
    80004094:	0000                	unimp
	...

0000000080004098 <vprintfmt>:
    80004098:	ea010113          	addi	sp,sp,-352
    8000409c:	14813823          	sd	s0,336(sp)
    800040a0:	14913423          	sd	s1,328(sp)
    800040a4:	15213023          	sd	s2,320(sp)
    800040a8:	13413823          	sd	s4,304(sp)
    800040ac:	13513423          	sd	s5,296(sp)
    800040b0:	13613023          	sd	s6,288(sp)
    800040b4:	14113c23          	sd	ra,344(sp)
    800040b8:	13313c23          	sd	s3,312(sp)
    800040bc:	11713c23          	sd	s7,280(sp)
    800040c0:	11813823          	sd	s8,272(sp)
    800040c4:	11913423          	sd	s9,264(sp)
    800040c8:	00050913          	mv	s2,a0
    800040cc:	00058493          	mv	s1,a1
    800040d0:	00060413          	mv	s0,a2
    800040d4:	00068b13          	mv	s6,a3
    800040d8:	02500a13          	li	s4,37
    800040dc:	8f818a93          	addi	s5,gp,-1800 # 80004be0 <main+0x124>
    800040e0:	0140006f          	j	800040f4 <vprintfmt+0x5c>
    800040e4:	06050063          	beqz	a0,80004144 <vprintfmt+0xac>
    800040e8:	00048593          	mv	a1,s1
    800040ec:	00140413          	addi	s0,s0,1
    800040f0:	000900e7          	jalr	s2
    800040f4:	00044503          	lbu	a0,0(s0)
    800040f8:	ff4516e3          	bne	a0,s4,800040e4 <vprintfmt+0x4c>
    800040fc:	00144683          	lbu	a3,1(s0)
    80004100:	00140c93          	addi	s9,s0,1
    80004104:	000c8713          	mv	a4,s9
    80004108:	02000c13          	li	s8,32
    8000410c:	fff00993          	li	s3,-1
    80004110:	fff00b93          	li	s7,-1
    80004114:	00000593          	li	a1,0
    80004118:	05500613          	li	a2,85
    8000411c:	00900513          	li	a0,9
    80004120:	fdd6879b          	addiw	a5,a3,-35
    80004124:	0ff7f093          	andi	ra,a5,255
    80004128:	00170413          	addi	s0,a4,1
    8000412c:	2a166863          	bltu	a2,ra,800043dc <vprintfmt+0x344>
    80004130:	00209293          	slli	t0,ra,0x2
    80004134:	01528333          	add	t1,t0,s5
    80004138:	00032383          	lw	t2,0(t1)
    8000413c:	01538833          	add	a6,t2,s5
    80004140:	00080067          	jr	a6
    80004144:	15813083          	ld	ra,344(sp)
    80004148:	15013403          	ld	s0,336(sp)
    8000414c:	14813483          	ld	s1,328(sp)
    80004150:	14013903          	ld	s2,320(sp)
    80004154:	13813983          	ld	s3,312(sp)
    80004158:	13013a03          	ld	s4,304(sp)
    8000415c:	12813a83          	ld	s5,296(sp)
    80004160:	12013b03          	ld	s6,288(sp)
    80004164:	11813b83          	ld	s7,280(sp)
    80004168:	11013c03          	ld	s8,272(sp)
    8000416c:	10813c83          	ld	s9,264(sp)
    80004170:	16010113          	addi	sp,sp,352
    80004174:	00008067          	ret
    80004178:	00800f93          	li	t6,8
    8000417c:	00100793          	li	a5,1
    80004180:	008b0293          	addi	t0,s6,8
    80004184:	12b7d863          	ble	a1,a5,800042b4 <vprintfmt+0x21c>
    80004188:	000b3303          	ld	t1,0(s6)
    8000418c:	00028b13          	mv	s6,t0
    80004190:	03f37eb3          	remu	t4,t1,t6
    80004194:	000c0c1b          	sext.w	s8,s8
    80004198:	01d12023          	sw	t4,0(sp)
    8000419c:	25f36a63          	bltu	t1,t6,800043f0 <vprintfmt+0x358>
    800041a0:	00410393          	addi	t2,sp,4
    800041a4:	00100993          	li	s3,1
    800041a8:	0080006f          	j	800041b0 <vprintfmt+0x118>
    800041ac:	000c8993          	mv	s3,s9
    800041b0:	03f35333          	divu	t1,t1,t6
    800041b4:	00438393          	addi	t2,t2,4
    800041b8:	00198c9b          	addiw	s9,s3,1
    800041bc:	03f37833          	remu	a6,t1,t6
    800041c0:	ff03ae23          	sw	a6,-4(t2)
    800041c4:	fff374e3          	bleu	t6,t1,800041ac <vprintfmt+0x114>
    800041c8:	017cde63          	ble	s7,s9,800041e4 <vprintfmt+0x14c>
    800041cc:	000b8b9b          	sext.w	s7,s7
    800041d0:	fffb8b9b          	addiw	s7,s7,-1
    800041d4:	00048593          	mv	a1,s1
    800041d8:	000c0513          	mv	a0,s8
    800041dc:	000900e7          	jalr	s2
    800041e0:	ff7cc8e3          	blt	s9,s7,800041d0 <vprintfmt+0x138>
    800041e4:	00299613          	slli	a2,s3,0x2
    800041e8:	10010893          	addi	a7,sp,256
    800041ec:	00c88e33          	add	t3,a7,a2
    800041f0:	f00e2e83          	lw	t4,-256(t3)
    800041f4:	fff98f1b          	addiw	t5,s3,-1
    800041f8:	002f1f93          	slli	t6,t5,0x2
    800041fc:	01f10c33          	add	s8,sp,t6
    80004200:	00900c93          	li	s9,9
    80004204:	0100006f          	j	80004214 <vprintfmt+0x17c>
    80004208:	000c2e83          	lw	t4,0(s8)
    8000420c:	fff98993          	addi	s3,s3,-1
    80004210:	ffcc0c13          	addi	s8,s8,-4
    80004214:	03000793          	li	a5,48
    80004218:	01dcf463          	bleu	t4,s9,80004220 <vprintfmt+0x188>
    8000421c:	05700793          	li	a5,87
    80004220:	00048593          	mv	a1,s1
    80004224:	01d7853b          	addw	a0,a5,t4
    80004228:	000900e7          	jalr	s2
    8000422c:	0009829b          	sext.w	t0,s3
    80004230:	fc504ce3          	bgtz	t0,80004208 <vprintfmt+0x170>
    80004234:	ec1ff06f          	j	800040f4 <vprintfmt+0x5c>
    80004238:	03000513          	li	a0,48
    8000423c:	00048593          	mv	a1,s1
    80004240:	000900e7          	jalr	s2
    80004244:	00048593          	mv	a1,s1
    80004248:	07800513          	li	a0,120
    8000424c:	000900e7          	jalr	s2
    80004250:	008b0293          	addi	t0,s6,8
    80004254:	01000f93          	li	t6,16
    80004258:	f31ff06f          	j	80004188 <vprintfmt+0xf0>
    8000425c:	000b3c83          	ld	s9,0(s6)
    80004260:	008b0b13          	addi	s6,s6,8
    80004264:	200c8c63          	beqz	s9,8000447c <vprintfmt+0x3e4>
    80004268:	1b705463          	blez	s7,80004410 <vprintfmt+0x378>
    8000426c:	02d00513          	li	a0,45
    80004270:	1eac0e63          	beq	s8,a0,8000446c <vprintfmt+0x3d4>
    80004274:	000b8e1b          	sext.w	t3,s7
    80004278:	20098e63          	beqz	s3,80004494 <vprintfmt+0x3fc>
    8000427c:	000cc603          	lbu	a2,0(s9)
    80004280:	20060a63          	beqz	a2,80004494 <vprintfmt+0x3fc>
    80004284:	001c8f13          	addi	t5,s9,1
    80004288:	013c8eb3          	add	t4,s9,s3
    8000428c:	25ee8463          	beq	t4,t5,800044d4 <vprintfmt+0x43c>
    80004290:	001f0713          	addi	a4,t5,1
    80004294:	fff74683          	lbu	a3,-1(a4)
    80004298:	16068663          	beqz	a3,80004404 <vprintfmt+0x36c>
    8000429c:	00070f13          	mv	t5,a4
    800042a0:	fedff06f          	j	8000428c <vprintfmt+0x1f4>
    800042a4:	00100793          	li	a5,1
    800042a8:	00a00f93          	li	t6,10
    800042ac:	008b0293          	addi	t0,s6,8
    800042b0:	ecb7cce3          	blt	a5,a1,80004188 <vprintfmt+0xf0>
    800042b4:	ec059ae3          	bnez	a1,80004188 <vprintfmt+0xf0>
    800042b8:	000b6303          	lwu	t1,0(s6)
    800042bc:	00028b13          	mv	s6,t0
    800042c0:	ed1ff06f          	j	80004190 <vprintfmt+0xf8>
    800042c4:	00174683          	lbu	a3,1(a4)
    800042c8:	00040713          	mv	a4,s0
    800042cc:	e55ff06f          	j	80004120 <vprintfmt+0x88>
    800042d0:	00048593          	mv	a1,s1
    800042d4:	02500513          	li	a0,37
    800042d8:	000900e7          	jalr	s2
    800042dc:	e19ff06f          	j	800040f4 <vprintfmt+0x5c>
    800042e0:	01000f93          	li	t6,16
    800042e4:	e99ff06f          	j	8000417c <vprintfmt+0xe4>
    800042e8:	000b2983          	lw	s3,0(s6)
    800042ec:	00174683          	lbu	a3,1(a4)
    800042f0:	008b0b13          	addi	s6,s6,8
    800042f4:	00040713          	mv	a4,s0
    800042f8:	e20bd4e3          	bgez	s7,80004120 <vprintfmt+0x88>
    800042fc:	00098b93          	mv	s7,s3
    80004300:	fff00993          	li	s3,-1
    80004304:	e1dff06f          	j	80004120 <vprintfmt+0x88>
    80004308:	00174683          	lbu	a3,1(a4)
    8000430c:	02d00c13          	li	s8,45
    80004310:	00040713          	mv	a4,s0
    80004314:	e0dff06f          	j	80004120 <vprintfmt+0x88>
    80004318:	000b8e93          	mv	t4,s7
    8000431c:	000bd463          	bgez	s7,80004324 <vprintfmt+0x28c>
    80004320:	00000e93          	li	t4,0
    80004324:	00174683          	lbu	a3,1(a4)
    80004328:	000e8b9b          	sext.w	s7,t4
    8000432c:	00040713          	mv	a4,s0
    80004330:	df1ff06f          	j	80004120 <vprintfmt+0x88>
    80004334:	00174683          	lbu	a3,1(a4)
    80004338:	03000c13          	li	s8,48
    8000433c:	00040713          	mv	a4,s0
    80004340:	de1ff06f          	j	80004120 <vprintfmt+0x88>
    80004344:	fd06899b          	addiw	s3,a3,-48
    80004348:	00174683          	lbu	a3,1(a4)
    8000434c:	00040713          	mv	a4,s0
    80004350:	fd06809b          	addiw	ra,a3,-48
    80004354:	00068e1b          	sext.w	t3,a3
    80004358:	fa1560e3          	bltu	a0,ra,800042f8 <vprintfmt+0x260>
    8000435c:	00170713          	addi	a4,a4,1
    80004360:	0029941b          	slliw	s0,s3,0x2
    80004364:	00074683          	lbu	a3,0(a4)
    80004368:	0134033b          	addw	t1,s0,s3
    8000436c:	0013139b          	slliw	t2,t1,0x1
    80004370:	01c3883b          	addw	a6,t2,t3
    80004374:	fd06889b          	addiw	a7,a3,-48
    80004378:	fd08099b          	addiw	s3,a6,-48
    8000437c:	00068e1b          	sext.w	t3,a3
    80004380:	fd157ee3          	bleu	a7,a0,8000435c <vprintfmt+0x2c4>
    80004384:	f75ff06f          	j	800042f8 <vprintfmt+0x260>
    80004388:	000b2503          	lw	a0,0(s6)
    8000438c:	00048593          	mv	a1,s1
    80004390:	008b0b13          	addi	s6,s6,8
    80004394:	000900e7          	jalr	s2
    80004398:	d5dff06f          	j	800040f4 <vprintfmt+0x5c>
    8000439c:	00100093          	li	ra,1
    800043a0:	008b0c93          	addi	s9,s6,8
    800043a4:	0ab0de63          	ble	a1,ra,80004460 <vprintfmt+0x3c8>
    800043a8:	000b3983          	ld	s3,0(s6)
    800043ac:	1009d263          	bgez	s3,800044b0 <vprintfmt+0x418>
    800043b0:	00048593          	mv	a1,s1
    800043b4:	02d00513          	li	a0,45
    800043b8:	000900e7          	jalr	s2
    800043bc:	000c8b13          	mv	s6,s9
    800043c0:	41300333          	neg	t1,s3
    800043c4:	00a00f93          	li	t6,10
    800043c8:	dc9ff06f          	j	80004190 <vprintfmt+0xf8>
    800043cc:	00174683          	lbu	a3,1(a4)
    800043d0:	0015859b          	addiw	a1,a1,1
    800043d4:	00040713          	mv	a4,s0
    800043d8:	d49ff06f          	j	80004120 <vprintfmt+0x88>
    800043dc:	00048593          	mv	a1,s1
    800043e0:	02500513          	li	a0,37
    800043e4:	000900e7          	jalr	s2
    800043e8:	000c8413          	mv	s0,s9
    800043ec:	d09ff06f          	j	800040f4 <vprintfmt+0x5c>
    800043f0:	00100513          	li	a0,1
    800043f4:	00000993          	li	s3,0
    800043f8:	00100c93          	li	s9,1
    800043fc:	dd7548e3          	blt	a0,s7,800041cc <vprintfmt+0x134>
    80004400:	df5ff06f          	j	800041f4 <vprintfmt+0x15c>
    80004404:	419f08b3          	sub	a7,t5,s9
    80004408:	411e0bbb          	subw	s7,t3,a7
    8000440c:	09704463          	bgtz	s7,80004494 <vprintfmt+0x3fc>
    80004410:	000cc503          	lbu	a0,0(s9)
    80004414:	ce0500e3          	beqz	a0,800040f4 <vprintfmt+0x5c>
    80004418:	fff00c13          	li	s8,-1
    8000441c:	0209dc63          	bgez	s3,80004454 <vprintfmt+0x3bc>
    80004420:	00048593          	mv	a1,s1
    80004424:	001c8c93          	addi	s9,s9,1
    80004428:	000900e7          	jalr	s2
    8000442c:	000cc503          	lbu	a0,0(s9)
    80004430:	fffb8b9b          	addiw	s7,s7,-1
    80004434:	fe0514e3          	bnez	a0,8000441c <vprintfmt+0x384>
    80004438:	cb705ee3          	blez	s7,800040f4 <vprintfmt+0x5c>
    8000443c:	fffb8b9b          	addiw	s7,s7,-1
    80004440:	00048593          	mv	a1,s1
    80004444:	02000513          	li	a0,32
    80004448:	000900e7          	jalr	s2
    8000444c:	fe0b98e3          	bnez	s7,8000443c <vprintfmt+0x3a4>
    80004450:	ca5ff06f          	j	800040f4 <vprintfmt+0x5c>
    80004454:	fff9899b          	addiw	s3,s3,-1
    80004458:	fd8994e3          	bne	s3,s8,80004420 <vprintfmt+0x388>
    8000445c:	fddff06f          	j	80004438 <vprintfmt+0x3a0>
    80004460:	f40594e3          	bnez	a1,800043a8 <vprintfmt+0x310>
    80004464:	000b2983          	lw	s3,0(s6)
    80004468:	f45ff06f          	j	800043ac <vprintfmt+0x314>
    8000446c:	000cc503          	lbu	a0,0(s9)
    80004470:	fc0506e3          	beqz	a0,8000443c <vprintfmt+0x3a4>
    80004474:	fff00c13          	li	s8,-1
    80004478:	fa5ff06f          	j	8000441c <vprintfmt+0x384>
    8000447c:	05705263          	blez	s7,800044c0 <vprintfmt+0x428>
    80004480:	02d00593          	li	a1,45
    80004484:	02bc0e63          	beq	s8,a1,800044c0 <vprintfmt+0x428>
    80004488:	00000c97          	auipc	s9,0x0
    8000448c:	710c8c93          	addi	s9,s9,1808 # 80004b98 <main+0xdc>
    80004490:	de5ff06f          	j	80004274 <vprintfmt+0x1dc>
    80004494:	000c0c1b          	sext.w	s8,s8
    80004498:	fffb8b9b          	addiw	s7,s7,-1
    8000449c:	00048593          	mv	a1,s1
    800044a0:	000c0513          	mv	a0,s8
    800044a4:	000900e7          	jalr	s2
    800044a8:	fe0b98e3          	bnez	s7,80004498 <vprintfmt+0x400>
    800044ac:	f65ff06f          	j	80004410 <vprintfmt+0x378>
    800044b0:	00098313          	mv	t1,s3
    800044b4:	000c8b13          	mv	s6,s9
    800044b8:	00a00f93          	li	t6,10
    800044bc:	cd5ff06f          	j	80004190 <vprintfmt+0xf8>
    800044c0:	00000c97          	auipc	s9,0x0
    800044c4:	6d8c8c93          	addi	s9,s9,1752 # 80004b98 <main+0xdc>
    800044c8:	02800513          	li	a0,40
    800044cc:	fff00c13          	li	s8,-1
    800044d0:	f4dff06f          	j	8000441c <vprintfmt+0x384>
    800044d4:	419e8bb3          	sub	s7,t4,s9
    800044d8:	417e0bbb          	subw	s7,t3,s7
    800044dc:	fb704ce3          	bgtz	s7,80004494 <vprintfmt+0x3fc>
    800044e0:	f31ff06f          	j	80004410 <vprintfmt+0x378>

00000000800044e4 <sprintf_putch.2912>:
    800044e4:	0005b783          	ld	a5,0(a1)
    800044e8:	00a78023          	sb	a0,0(a5)
    800044ec:	0005b283          	ld	t0,0(a1)
    800044f0:	00128313          	addi	t1,t0,1
    800044f4:	0065b023          	sd	t1,0(a1)
    800044f8:	00008067          	ret

00000000800044fc <putchar>:
    800044fc:	08022803          	lw	a6,128(tp) # 80 <buflen.2798>
    80004500:	04020293          	addi	t0,tp,64 # 40 <buf.2797>
    80004504:	f8010113          	addi	sp,sp,-128
    80004508:	0018069b          	addiw	a3,a6,1
    8000450c:	01028333          	add	t1,t0,a6
    80004510:	03f10893          	addi	a7,sp,63
    80004514:	08d22023          	sw	a3,128(tp) # 80 <buflen.2798>
    80004518:	00a30023          	sb	a0,0(t1)
    8000451c:	00a00393          	li	t2,10
    80004520:	fc08fe13          	andi	t3,a7,-64
    80004524:	00750c63          	beq	a0,t2,8000453c <putchar+0x40>
    80004528:	04000513          	li	a0,64
    8000452c:	00a68863          	beq	a3,a0,8000453c <putchar+0x40>
    80004530:	00000513          	li	a0,0
    80004534:	08010113          	addi	sp,sp,128
    80004538:	00008067          	ret
    8000453c:	04000e93          	li	t4,64
    80004540:	01de3023          	sd	t4,0(t3)
    80004544:	00100f93          	li	t6,1
    80004548:	01fe3423          	sd	t6,8(t3)
    8000454c:	04020713          	addi	a4,tp,64 # 40 <buf.2797>
    80004550:	00ee3823          	sd	a4,16(t3)
    80004554:	00de3c23          	sd	a3,24(t3)
    80004558:	0ff0000f          	fence
    8000455c:	ffffd797          	auipc	a5,0xffffd
    80004560:	abc7b223          	sd	t3,-1372(a5) # 80001000 <tohost>
    80004564:	ffffd817          	auipc	a6,0xffffd
    80004568:	adc80813          	addi	a6,a6,-1316 # 80001040 <fromhost>
    8000456c:	00083603          	ld	a2,0(a6)
    80004570:	fe060ee3          	beqz	a2,8000456c <putchar+0x70>
    80004574:	ffffd797          	auipc	a5,0xffffd
    80004578:	ac07b623          	sd	zero,-1332(a5) # 80001040 <fromhost>
    8000457c:	0ff0000f          	fence
    80004580:	08022023          	sw	zero,128(tp) # 80 <buflen.2798>
    80004584:	000e3783          	ld	a5,0(t3)
    80004588:	00000513          	li	a0,0
    8000458c:	08010113          	addi	sp,sp,128
    80004590:	00008067          	ret

0000000080004594 <setStats>:
    80004594:	b00027f3          	csrr	a5,mcycle
    80004598:	a5818713          	addi	a4,gp,-1448 # 80004d40 <counters>
    8000459c:	00051c63          	bnez	a0,800045b4 <setStats+0x20>
    800045a0:	00073683          	ld	a3,0(a4)
    800045a4:	00000617          	auipc	a2,0x0
    800045a8:	5fc60613          	addi	a2,a2,1532 # 80004ba0 <main+0xe4>
    800045ac:	a6c1b423          	sd	a2,-1432(gp) # 80004d50 <counter_names>
    800045b0:	40d787b3          	sub	a5,a5,a3
    800045b4:	a4f1bc23          	sd	a5,-1448(gp) # 80004d40 <counters>
    800045b8:	b02023f3          	csrr	t2,minstret
    800045bc:	00051c63          	bnez	a0,800045d4 <setStats+0x40>
    800045c0:	00873283          	ld	t0,8(a4)
    800045c4:	00000317          	auipc	t1,0x0
    800045c8:	5e430313          	addi	t1,t1,1508 # 80004ba8 <main+0xec>
    800045cc:	a661b823          	sd	t1,-1424(gp) # 80004d58 <counter_names+0x8>
    800045d0:	405383b3          	sub	t2,t2,t0
    800045d4:	a671b023          	sd	t2,-1440(gp) # 80004d48 <counters+0x8>
    800045d8:	00008067          	ret

00000000800045dc <tohost_exit>:
    800045dc:	00151793          	slli	a5,a0,0x1
    800045e0:	0017e293          	ori	t0,a5,1
    800045e4:	ffffd717          	auipc	a4,0xffffd
    800045e8:	a0573e23          	sd	t0,-1508(a4) # 80001000 <tohost>
    800045ec:	0000006f          	j	800045ec <tohost_exit+0x10>

00000000800045f0 <handle_trap>:
    800045f0:	000017b7          	lui	a5,0x1
    800045f4:	a7378293          	addi	t0,a5,-1421 # a73 <_tbss_end+0x9ef>
    800045f8:	ffffd717          	auipc	a4,0xffffd
    800045fc:	a0573423          	sd	t0,-1528(a4) # 80001000 <tohost>
    80004600:	0000006f          	j	80004600 <handle_trap+0x10>

0000000080004604 <exit>:
    80004604:	ff010113          	addi	sp,sp,-16
    80004608:	00113423          	sd	ra,8(sp)
    8000460c:	fd1ff0ef          	jal	ra,800045dc <tohost_exit>

0000000080004610 <abort>:
    80004610:	10d00793          	li	a5,269
    80004614:	ffffd717          	auipc	a4,0xffffd
    80004618:	9ef73623          	sd	a5,-1556(a4) # 80001000 <tohost>
    8000461c:	0000006f          	j	8000461c <abort+0xc>

0000000080004620 <printstr>:
    80004620:	00054783          	lbu	a5,0(a0)
    80004624:	f8010113          	addi	sp,sp,-128
    80004628:	03f10713          	addi	a4,sp,63
    8000462c:	00050693          	mv	a3,a0
    80004630:	fc077293          	andi	t0,a4,-64
    80004634:	06078263          	beqz	a5,80004698 <printstr+0x78>
    80004638:	00050613          	mv	a2,a0
    8000463c:	00150513          	addi	a0,a0,1
    80004640:	00054303          	lbu	t1,0(a0)
    80004644:	fe031ce3          	bnez	t1,8000463c <printstr+0x1c>
    80004648:	40c50533          	sub	a0,a0,a2
    8000464c:	04000393          	li	t2,64
    80004650:	0072b023          	sd	t2,0(t0)
    80004654:	00100593          	li	a1,1
    80004658:	00b2b423          	sd	a1,8(t0)
    8000465c:	00d2b823          	sd	a3,16(t0)
    80004660:	00a2bc23          	sd	a0,24(t0)
    80004664:	0ff0000f          	fence
    80004668:	ffffd797          	auipc	a5,0xffffd
    8000466c:	9857bc23          	sd	t0,-1640(a5) # 80001000 <tohost>
    80004670:	ffffd817          	auipc	a6,0xffffd
    80004674:	9d080813          	addi	a6,a6,-1584 # 80001040 <fromhost>
    80004678:	00083883          	ld	a7,0(a6)
    8000467c:	fe088ee3          	beqz	a7,80004678 <printstr+0x58>
    80004680:	ffffd797          	auipc	a5,0xffffd
    80004684:	9c07b023          	sd	zero,-1600(a5) # 80001040 <fromhost>
    80004688:	0ff0000f          	fence
    8000468c:	0002b783          	ld	a5,0(t0)
    80004690:	08010113          	addi	sp,sp,128
    80004694:	00008067          	ret
    80004698:	00000513          	li	a0,0
    8000469c:	fb1ff06f          	j	8000464c <printstr+0x2c>
    800046a0:	00050463          	beqz	a0,800046a8 <printstr+0x88>
    800046a4:	0000006f          	j	800046a4 <printstr+0x84>
    800046a8:	00008067          	ret

00000000800046ac <printhex>:
    800046ac:	fd010113          	addi	sp,sp,-48
    800046b0:	02113423          	sd	ra,40(sp)
    800046b4:	01710713          	addi	a4,sp,23
    800046b8:	00710813          	addi	a6,sp,7
    800046bc:	00900593          	li	a1,9
    800046c0:	00f57793          	andi	a5,a0,15
    800046c4:	03000613          	li	a2,48
    800046c8:	0ff7f693          	andi	a3,a5,255
    800046cc:	00f5f463          	bleu	a5,a1,800046d4 <printhex+0x28>
    800046d0:	05700613          	li	a2,87
    800046d4:	00c680bb          	addw	ra,a3,a2
    800046d8:	00170023          	sb	ra,0(a4)
    800046dc:	fff70713          	addi	a4,a4,-1
    800046e0:	00455513          	srli	a0,a0,0x4
    800046e4:	fce81ee3          	bne	a6,a4,800046c0 <printhex+0x14>
    800046e8:	00810513          	addi	a0,sp,8
    800046ec:	00010c23          	sb	zero,24(sp)
    800046f0:	f31ff0ef          	jal	ra,80004620 <printstr>
    800046f4:	02813083          	ld	ra,40(sp)
    800046f8:	03010113          	addi	sp,sp,48
    800046fc:	00008067          	ret

0000000080004700 <printf>:
    80004700:	fa010113          	addi	sp,sp,-96
    80004704:	02810313          	addi	t1,sp,40
    80004708:	02b13423          	sd	a1,40(sp)
    8000470c:	02c13823          	sd	a2,48(sp)
    80004710:	02d13c23          	sd	a3,56(sp)
    80004714:	00050613          	mv	a2,a0
    80004718:	00030693          	mv	a3,t1
    8000471c:	00000517          	auipc	a0,0x0
    80004720:	de050513          	addi	a0,a0,-544 # 800044fc <putchar>
    80004724:	00000593          	li	a1,0
    80004728:	00113c23          	sd	ra,24(sp)
    8000472c:	04e13023          	sd	a4,64(sp)
    80004730:	04f13423          	sd	a5,72(sp)
    80004734:	05013823          	sd	a6,80(sp)
    80004738:	05113c23          	sd	a7,88(sp)
    8000473c:	00613423          	sd	t1,8(sp)
    80004740:	00000097          	auipc	ra,0x0
    80004744:	958080e7          	jalr	-1704(ra) # 80004098 <vprintfmt>
    80004748:	01813083          	ld	ra,24(sp)
    8000474c:	00000513          	li	a0,0
    80004750:	06010113          	addi	sp,sp,96
    80004754:	00008067          	ret

0000000080004758 <sprintf>:
    80004758:	fa010113          	addi	sp,sp,-96
    8000475c:	03010313          	addi	t1,sp,48
    80004760:	02813023          	sd	s0,32(sp)
    80004764:	00a13423          	sd	a0,8(sp)
    80004768:	02c13823          	sd	a2,48(sp)
    8000476c:	02d13c23          	sd	a3,56(sp)
    80004770:	00050413          	mv	s0,a0
    80004774:	00058613          	mv	a2,a1
    80004778:	00000517          	auipc	a0,0x0
    8000477c:	d6c50513          	addi	a0,a0,-660 # 800044e4 <sprintf_putch.2912>
    80004780:	00810593          	addi	a1,sp,8
    80004784:	00030693          	mv	a3,t1
    80004788:	02113423          	sd	ra,40(sp)
    8000478c:	04f13423          	sd	a5,72(sp)
    80004790:	04e13023          	sd	a4,64(sp)
    80004794:	05013823          	sd	a6,80(sp)
    80004798:	05113c23          	sd	a7,88(sp)
    8000479c:	00613c23          	sd	t1,24(sp)
    800047a0:	8f9ff0ef          	jal	ra,80004098 <vprintfmt>
    800047a4:	00813783          	ld	a5,8(sp)
    800047a8:	00078023          	sb	zero,0(a5)
    800047ac:	00813503          	ld	a0,8(sp)
    800047b0:	02813083          	ld	ra,40(sp)
    800047b4:	4085053b          	subw	a0,a0,s0
    800047b8:	02013403          	ld	s0,32(sp)
    800047bc:	06010113          	addi	sp,sp,96
    800047c0:	00008067          	ret

00000000800047c4 <memcpy>:
    800047c4:	00c5e7b3          	or	a5,a1,a2
    800047c8:	00f562b3          	or	t0,a0,a5
    800047cc:	0072f313          	andi	t1,t0,7
    800047d0:	00c506b3          	add	a3,a0,a2
    800047d4:	02030463          	beqz	t1,800047fc <memcpy+0x38>
    800047d8:	04d57263          	bleu	a3,a0,8000481c <memcpy+0x58>
    800047dc:	00c58633          	add	a2,a1,a2
    800047e0:	00050393          	mv	t2,a0
    800047e4:	00158593          	addi	a1,a1,1
    800047e8:	fff5c703          	lbu	a4,-1(a1)
    800047ec:	00138393          	addi	t2,t2,1
    800047f0:	fee38fa3          	sb	a4,-1(t2)
    800047f4:	feb618e3          	bne	a2,a1,800047e4 <memcpy+0x20>
    800047f8:	00008067          	ret
    800047fc:	fed57ee3          	bleu	a3,a0,800047f8 <memcpy+0x34>
    80004800:	00050893          	mv	a7,a0
    80004804:	00858593          	addi	a1,a1,8
    80004808:	ff85b803          	ld	a6,-8(a1)
    8000480c:	00888893          	addi	a7,a7,8
    80004810:	ff08bc23          	sd	a6,-8(a7)
    80004814:	fed8e8e3          	bltu	a7,a3,80004804 <memcpy+0x40>
    80004818:	00008067          	ret
    8000481c:	00008067          	ret

0000000080004820 <memset>:
    80004820:	00c567b3          	or	a5,a0,a2
    80004824:	0077f293          	andi	t0,a5,7
    80004828:	00c50633          	add	a2,a0,a2
    8000482c:	02028063          	beqz	t0,8000484c <memset+0x2c>
    80004830:	04c57863          	bleu	a2,a0,80004880 <memset+0x60>
    80004834:	0ff5f593          	andi	a1,a1,255
    80004838:	00050313          	mv	t1,a0
    8000483c:	00130313          	addi	t1,t1,1
    80004840:	feb30fa3          	sb	a1,-1(t1)
    80004844:	fe661ce3          	bne	a2,t1,8000483c <memset+0x1c>
    80004848:	00008067          	ret
    8000484c:	0ff5f393          	andi	t2,a1,255
    80004850:	00839693          	slli	a3,t2,0x8
    80004854:	00d3e733          	or	a4,t2,a3
    80004858:	01071813          	slli	a6,a4,0x10
    8000485c:	010768b3          	or	a7,a4,a6
    80004860:	02089e13          	slli	t3,a7,0x20
    80004864:	01c8eeb3          	or	t4,a7,t3
    80004868:	fec570e3          	bleu	a2,a0,80004848 <memset+0x28>
    8000486c:	00050f13          	mv	t5,a0
    80004870:	008f0f13          	addi	t5,t5,8
    80004874:	ffdf3c23          	sd	t4,-8(t5)
    80004878:	fecf6ce3          	bltu	t5,a2,80004870 <memset+0x50>
    8000487c:	00008067          	ret
    80004880:	00008067          	ret

0000000080004884 <_init>:
    80004884:	f4010113          	addi	sp,sp,-192
    80004888:	0a813823          	sd	s0,176(sp)
    8000488c:	0a913423          	sd	s1,168(sp)
    80004890:	0a113c23          	sd	ra,184(sp)
    80004894:	00020493          	mv	s1,tp
    80004898:	00020313          	mv	t1,tp
    8000489c:	40648433          	sub	s0,s1,t1
    800048a0:	00040613          	mv	a2,s0
    800048a4:	09313c23          	sd	s3,152(sp)
    800048a8:	09413823          	sd	s4,144(sp)
    800048ac:	00050993          	mv	s3,a0
    800048b0:	00058a13          	mv	s4,a1
    800048b4:	00020513          	mv	a0,tp
    800048b8:	a9818593          	addi	a1,gp,-1384 # 80004d80 <_end>
    800048bc:	0b213023          	sd	s2,160(sp)
    800048c0:	09513423          	sd	s5,136(sp)
    800048c4:	00020a93          	mv	s5,tp
    800048c8:	efdff0ef          	jal	ra,800047c4 <memcpy>
    800048cc:	08420513          	addi	a0,tp,132 # 84 <_tbss_end>
    800048d0:	40950633          	sub	a2,a0,s1
    800048d4:	00000593          	li	a1,0
    800048d8:	008a8533          	add	a0,s5,s0
    800048dc:	00000097          	auipc	ra,0x0
    800048e0:	f44080e7          	jalr	-188(ra) # 80004820 <memset>
    800048e4:	00098513          	mv	a0,s3
    800048e8:	000a0593          	mv	a1,s4
    800048ec:	ad8ff0ef          	jal	ra,80003bc4 <thread_entry>
    800048f0:	00000593          	li	a1,0
    800048f4:	00000513          	li	a0,0
    800048f8:	00000097          	auipc	ra,0x0
    800048fc:	1c4080e7          	jalr	452(ra) # 80004abc <main>
    80004900:	a5818413          	addi	s0,gp,-1448 # 80004d40 <counters>
    80004904:	00043683          	ld	a3,0(s0)
    80004908:	03f10913          	addi	s2,sp,63
    8000490c:	fc097913          	andi	s2,s2,-64
    80004910:	00050993          	mv	s3,a0
    80004914:	04069663          	bnez	a3,80004960 <_init+0xdc>
    80004918:	00843683          	ld	a3,8(s0)
    8000491c:	00069863          	bnez	a3,8000492c <_init+0xa8>
    80004920:	00098513          	mv	a0,s3
    80004924:	00000097          	auipc	ra,0x0
    80004928:	cb8080e7          	jalr	-840(ra) # 800045dc <tohost_exit>
    8000492c:	00090493          	mv	s1,s2
    80004930:	01843603          	ld	a2,24(s0)
    80004934:	00048513          	mv	a0,s1
    80004938:	00000597          	auipc	a1,0x0
    8000493c:	29858593          	addi	a1,a1,664 # 80004bd0 <main+0x114>
    80004940:	00000097          	auipc	ra,0x0
    80004944:	e18080e7          	jalr	-488(ra) # 80004758 <sprintf>
    80004948:	00a484b3          	add	s1,s1,a0
    8000494c:	fc990ae3          	beq	s2,s1,80004920 <_init+0x9c>
    80004950:	00090513          	mv	a0,s2
    80004954:	00000097          	auipc	ra,0x0
    80004958:	ccc080e7          	jalr	-820(ra) # 80004620 <printstr>
    8000495c:	fc5ff06f          	j	80004920 <_init+0x9c>
    80004960:	01043603          	ld	a2,16(s0)
    80004964:	00000597          	auipc	a1,0x0
    80004968:	26c58593          	addi	a1,a1,620 # 80004bd0 <main+0x114>
    8000496c:	00090513          	mv	a0,s2
    80004970:	00000097          	auipc	ra,0x0
    80004974:	de8080e7          	jalr	-536(ra) # 80004758 <sprintf>
    80004978:	00843683          	ld	a3,8(s0)
    8000497c:	00a904b3          	add	s1,s2,a0
    80004980:	fc0686e3          	beqz	a3,8000494c <_init+0xc8>
    80004984:	fadff06f          	j	80004930 <_init+0xac>

0000000080004988 <strlen>:
    80004988:	00054783          	lbu	a5,0(a0)
    8000498c:	00050713          	mv	a4,a0
    80004990:	00078c63          	beqz	a5,800049a8 <strlen+0x20>
    80004994:	00150513          	addi	a0,a0,1
    80004998:	00054283          	lbu	t0,0(a0)
    8000499c:	fe029ce3          	bnez	t0,80004994 <strlen+0xc>
    800049a0:	40e50533          	sub	a0,a0,a4
    800049a4:	00008067          	ret
    800049a8:	00000513          	li	a0,0
    800049ac:	00008067          	ret

00000000800049b0 <strnlen>:
    800049b0:	00050713          	mv	a4,a0
    800049b4:	02058663          	beqz	a1,800049e0 <strnlen+0x30>
    800049b8:	00054783          	lbu	a5,0(a0)
    800049bc:	02078263          	beqz	a5,800049e0 <strnlen+0x30>
    800049c0:	00b505b3          	add	a1,a0,a1
    800049c4:	00c0006f          	j	800049d0 <strnlen+0x20>
    800049c8:	00054283          	lbu	t0,0(a0)
    800049cc:	00028663          	beqz	t0,800049d8 <strnlen+0x28>
    800049d0:	00150513          	addi	a0,a0,1
    800049d4:	feb51ae3          	bne	a0,a1,800049c8 <strnlen+0x18>
    800049d8:	40e50533          	sub	a0,a0,a4
    800049dc:	00008067          	ret
    800049e0:	00000513          	li	a0,0
    800049e4:	00008067          	ret

00000000800049e8 <strcmp>:
    800049e8:	00150513          	addi	a0,a0,1
    800049ec:	fff54783          	lbu	a5,-1(a0)
    800049f0:	00158593          	addi	a1,a1,1
    800049f4:	fff5c703          	lbu	a4,-1(a1)
    800049f8:	00078a63          	beqz	a5,80004a0c <strcmp+0x24>
    800049fc:	fee786e3          	beq	a5,a4,800049e8 <strcmp>
    80004a00:	0007851b          	sext.w	a0,a5
    80004a04:	40e5053b          	subw	a0,a0,a4
    80004a08:	00008067          	ret
    80004a0c:	00000513          	li	a0,0
    80004a10:	ff5ff06f          	j	80004a04 <strcmp+0x1c>

0000000080004a14 <strcpy>:
    80004a14:	00050793          	mv	a5,a0
    80004a18:	00158593          	addi	a1,a1,1
    80004a1c:	fff5c703          	lbu	a4,-1(a1)
    80004a20:	00178793          	addi	a5,a5,1
    80004a24:	fee78fa3          	sb	a4,-1(a5)
    80004a28:	fe0718e3          	bnez	a4,80004a18 <strcpy+0x4>
    80004a2c:	00008067          	ret

0000000080004a30 <atol>:
    80004a30:	00054783          	lbu	a5,0(a0)
    80004a34:	02000713          	li	a4,32
    80004a38:	00e79863          	bne	a5,a4,80004a48 <atol+0x18>
    80004a3c:	00150513          	addi	a0,a0,1
    80004a40:	00054783          	lbu	a5,0(a0)
    80004a44:	fee78ce3          	beq	a5,a4,80004a3c <atol+0xc>
    80004a48:	fd57829b          	addiw	t0,a5,-43
    80004a4c:	0fd2f313          	andi	t1,t0,253
    80004a50:	04030263          	beqz	t1,80004a94 <atol+0x64>
    80004a54:	00054683          	lbu	a3,0(a0)
    80004a58:	04068c63          	beqz	a3,80004ab0 <atol+0x80>
    80004a5c:	00050813          	mv	a6,a0
    80004a60:	00000613          	li	a2,0
    80004a64:	00000513          	li	a0,0
    80004a68:	00180813          	addi	a6,a6,1
    80004a6c:	fd06859b          	addiw	a1,a3,-48
    80004a70:	00251893          	slli	a7,a0,0x2
    80004a74:	00084683          	lbu	a3,0(a6)
    80004a78:	00a88533          	add	a0,a7,a0
    80004a7c:	00151e13          	slli	t3,a0,0x1
    80004a80:	01c58533          	add	a0,a1,t3
    80004a84:	fe0692e3          	bnez	a3,80004a68 <atol+0x38>
    80004a88:	00060463          	beqz	a2,80004a90 <atol+0x60>
    80004a8c:	40a00533          	neg	a0,a0
    80004a90:	00008067          	ret
    80004a94:	00154683          	lbu	a3,1(a0)
    80004a98:	fd378393          	addi	t2,a5,-45
    80004a9c:	0013b613          	seqz	a2,t2
    80004aa0:	00150813          	addi	a6,a0,1
    80004aa4:	fc0690e3          	bnez	a3,80004a64 <atol+0x34>
    80004aa8:	00000513          	li	a0,0
    80004aac:	fddff06f          	j	80004a88 <atol+0x58>
    80004ab0:	00000513          	li	a0,0
    80004ab4:	00008067          	ret
    80004ab8:	0000                	unimp
	...

Disassembly of section .text.startup:

0000000080004abc <main>:
    80004abc:	ff010113          	addi	sp,sp,-16
    80004ac0:	00000517          	auipc	a0,0x0
    80004ac4:	0f850513          	addi	a0,a0,248 # 80004bb8 <main+0xfc>
    80004ac8:	00113423          	sd	ra,8(sp)
    80004acc:	b55ff0ef          	jal	ra,80004620 <printstr>
    80004ad0:	00813083          	ld	ra,8(sp)
    80004ad4:	fff00513          	li	a0,-1
    80004ad8:	01010113          	addi	sp,sp,16
    80004adc:	00008067          	ret
	...
