
mt-matmul.riscv:     file format elf64-littleriscv


Disassembly of section .text.init:

0000000080000000 <_start>:
    80000000:	00000093          	li	ra,0
    80000004:	00000113          	li	sp,0
    80000008:	00000193          	li	gp,0
    8000000c:	00000213          	li	tp,0
    80000010:	00000293          	li	t0,0
    80000014:	00000313          	li	t1,0
    80000018:	00000393          	li	t2,0
    8000001c:	00000413          	li	s0,0
    80000020:	00000493          	li	s1,0
    80000024:	00000513          	li	a0,0
    80000028:	00000593          	li	a1,0
    8000002c:	00000613          	li	a2,0
    80000030:	00000693          	li	a3,0
    80000034:	00000713          	li	a4,0
    80000038:	00000793          	li	a5,0
    8000003c:	00000813          	li	a6,0
    80000040:	00000893          	li	a7,0
    80000044:	00000913          	li	s2,0
    80000048:	00000993          	li	s3,0
    8000004c:	00000a13          	li	s4,0
    80000050:	00000a93          	li	s5,0
    80000054:	00000b13          	li	s6,0
    80000058:	00000b93          	li	s7,0
    8000005c:	00000c13          	li	s8,0
    80000060:	00000c93          	li	s9,0
    80000064:	00000d13          	li	s10,0
    80000068:	00000d93          	li	s11,0
    8000006c:	00000e13          	li	t3,0
    80000070:	00000e93          	li	t4,0
    80000074:	00000f13          	li	t5,0
    80000078:	00000f93          	li	t6,0
    8000007c:	0001e2b7          	lui	t0,0x1e
    80000080:	3002a073          	csrs	mstatus,t0
    80000084:	00100293          	li	t0,1
    80000088:	01f29293          	slli	t0,t0,0x1f
    8000008c:	0002da63          	bgez	t0,800000a0 <_start+0xa0>
    80000090:	00100513          	li	a0,1
    80000094:	00001297          	auipc	t0,0x1
    80000098:	f6a2a623          	sw	a0,-148(t0) # 80001000 <tohost>
    8000009c:	ff5ff06f          	j	80000090 <_start+0x90>
    800000a0:	00000297          	auipc	t0,0x0
    800000a4:	09028293          	addi	t0,t0,144 # 80000130 <_start+0x130>
    800000a8:	30529073          	csrw	mtvec,t0
    800000ac:	00301073          	fssr	zero
    800000b0:	f0000053          	fmv.s.x	ft0,zero
    800000b4:	f00000d3          	fmv.s.x	ft1,zero
    800000b8:	f0000153          	fmv.s.x	ft2,zero
    800000bc:	f00001d3          	fmv.s.x	ft3,zero
    800000c0:	f0000253          	fmv.s.x	ft4,zero
    800000c4:	f00002d3          	fmv.s.x	ft5,zero
    800000c8:	f0000353          	fmv.s.x	ft6,zero
    800000cc:	f00003d3          	fmv.s.x	ft7,zero
    800000d0:	f0000453          	fmv.s.x	fs0,zero
    800000d4:	f00004d3          	fmv.s.x	fs1,zero
    800000d8:	f0000553          	fmv.s.x	fa0,zero
    800000dc:	f00005d3          	fmv.s.x	fa1,zero
    800000e0:	f0000653          	fmv.s.x	fa2,zero
    800000e4:	f00006d3          	fmv.s.x	fa3,zero
    800000e8:	f0000753          	fmv.s.x	fa4,zero
    800000ec:	f00007d3          	fmv.s.x	fa5,zero
    800000f0:	f0000853          	fmv.s.x	fa6,zero
    800000f4:	f00008d3          	fmv.s.x	fa7,zero
    800000f8:	f0000953          	fmv.s.x	fs2,zero
    800000fc:	f00009d3          	fmv.s.x	fs3,zero
    80000100:	f0000a53          	fmv.s.x	fs4,zero
    80000104:	f0000ad3          	fmv.s.x	fs5,zero
    80000108:	f0000b53          	fmv.s.x	fs6,zero
    8000010c:	f0000bd3          	fmv.s.x	fs7,zero
    80000110:	f0000c53          	fmv.s.x	fs8,zero
    80000114:	f0000cd3          	fmv.s.x	fs9,zero
    80000118:	f0000d53          	fmv.s.x	fs10,zero
    8000011c:	f0000dd3          	fmv.s.x	fs11,zero
    80000120:	f0000e53          	fmv.s.x	ft8,zero
    80000124:	f0000ed3          	fmv.s.x	ft9,zero
    80000128:	f0000f53          	fmv.s.x	ft10,zero
    8000012c:	f0000fd3          	fmv.s.x	ft11,zero
    80000130:	00000297          	auipc	t0,0x0
    80000134:	04028293          	addi	t0,t0,64 # 80000170 <trap_entry>
    80000138:	30529073          	csrw	mtvec,t0
    8000013c:	00003197          	auipc	gp,0x3
    80000140:	33c18193          	addi	gp,gp,828 # 80003478 <__global_pointer$>
    80000144:	c8718213          	addi	tp,gp,-889 # 800030ff <_end+0x3f>
    80000148:	fc027213          	andi	tp,tp,-64
    8000014c:	f1402573          	csrr	a0,mhartid
    80000150:	00100593          	li	a1,1
    80000154:	00b57063          	bleu	a1,a0,80000154 <_start+0x154>
    80000158:	01151613          	slli	a2,a0,0x11
    8000015c:	00c20233          	add	tp,tp,a2
    80000160:	00150113          	addi	sp,a0,1
    80000164:	01111113          	slli	sp,sp,0x11
    80000168:	00410133          	add	sp,sp,tp
    8000016c:	2810106f          	j	80001bec <_init>

0000000080000170 <trap_entry>:
    80000170:	ef010113          	addi	sp,sp,-272
    80000174:	00113423          	sd	ra,8(sp)
    80000178:	00213823          	sd	sp,16(sp)
    8000017c:	00313c23          	sd	gp,24(sp)
    80000180:	02413023          	sd	tp,32(sp)
    80000184:	02513423          	sd	t0,40(sp)
    80000188:	02613823          	sd	t1,48(sp)
    8000018c:	02713c23          	sd	t2,56(sp)
    80000190:	04813023          	sd	s0,64(sp)
    80000194:	04913423          	sd	s1,72(sp)
    80000198:	04a13823          	sd	a0,80(sp)
    8000019c:	04b13c23          	sd	a1,88(sp)
    800001a0:	06c13023          	sd	a2,96(sp)
    800001a4:	06d13423          	sd	a3,104(sp)
    800001a8:	06e13823          	sd	a4,112(sp)
    800001ac:	06f13c23          	sd	a5,120(sp)
    800001b0:	09013023          	sd	a6,128(sp)
    800001b4:	09113423          	sd	a7,136(sp)
    800001b8:	09213823          	sd	s2,144(sp)
    800001bc:	09313c23          	sd	s3,152(sp)
    800001c0:	0b413023          	sd	s4,160(sp)
    800001c4:	0b513423          	sd	s5,168(sp)
    800001c8:	0b613823          	sd	s6,176(sp)
    800001cc:	0b713c23          	sd	s7,184(sp)
    800001d0:	0d813023          	sd	s8,192(sp)
    800001d4:	0d913423          	sd	s9,200(sp)
    800001d8:	0da13823          	sd	s10,208(sp)
    800001dc:	0db13c23          	sd	s11,216(sp)
    800001e0:	0fc13023          	sd	t3,224(sp)
    800001e4:	0fd13423          	sd	t4,232(sp)
    800001e8:	0fe13823          	sd	t5,240(sp)
    800001ec:	0ff13c23          	sd	t6,248(sp)
    800001f0:	34202573          	csrr	a0,mcause
    800001f4:	341025f3          	csrr	a1,mepc
    800001f8:	00010613          	mv	a2,sp
    800001fc:	75c010ef          	jal	ra,80001958 <handle_trap>
    80000200:	34151073          	csrw	mepc,a0
    80000204:	000022b7          	lui	t0,0x2
    80000208:	8002829b          	addiw	t0,t0,-2048
    8000020c:	3002a073          	csrs	mstatus,t0
    80000210:	00813083          	ld	ra,8(sp)
    80000214:	01013103          	ld	sp,16(sp)
    80000218:	01813183          	ld	gp,24(sp)
    8000021c:	02013203          	ld	tp,32(sp)
    80000220:	02813283          	ld	t0,40(sp)
    80000224:	03013303          	ld	t1,48(sp)
    80000228:	03813383          	ld	t2,56(sp)
    8000022c:	04013403          	ld	s0,64(sp)
    80000230:	04813483          	ld	s1,72(sp)
    80000234:	05013503          	ld	a0,80(sp)
    80000238:	05813583          	ld	a1,88(sp)
    8000023c:	06013603          	ld	a2,96(sp)
    80000240:	06813683          	ld	a3,104(sp)
    80000244:	07013703          	ld	a4,112(sp)
    80000248:	07813783          	ld	a5,120(sp)
    8000024c:	08013803          	ld	a6,128(sp)
    80000250:	08813883          	ld	a7,136(sp)
    80000254:	09013903          	ld	s2,144(sp)
    80000258:	09813983          	ld	s3,152(sp)
    8000025c:	0a013a03          	ld	s4,160(sp)
    80000260:	0a813a83          	ld	s5,168(sp)
    80000264:	0b013b03          	ld	s6,176(sp)
    80000268:	0b813b83          	ld	s7,184(sp)
    8000026c:	0c013c03          	ld	s8,192(sp)
    80000270:	0c813c83          	ld	s9,200(sp)
    80000274:	0d013d03          	ld	s10,208(sp)
    80000278:	0d813d83          	ld	s11,216(sp)
    8000027c:	0e013e03          	ld	t3,224(sp)
    80000280:	0e813e83          	ld	t4,232(sp)
    80000284:	0f013f03          	ld	t5,240(sp)
    80000288:	0f813f83          	ld	t6,248(sp)
    8000028c:	11010113          	addi	sp,sp,272
    80000290:	30200073          	mret
	...

Disassembly of section .tohost:

0000000080001000 <tohost>:
	...

0000000080001040 <fromhost>:
	...

Disassembly of section .text:

0000000080001048 <matmul>:
    80001048:	02b65833          	divu	a6,a2,a1
    8000104c:	fd010113          	addi	sp,sp,-48
    80001050:	01213c23          	sd	s2,24(sp)
    80001054:	02813423          	sd	s0,40(sp)
    80001058:	02913023          	sd	s1,32(sp)
    8000105c:	01313823          	sd	s3,16(sp)
    80001060:	01413423          	sd	s4,8(sp)
    80001064:	02a80933          	mul	s2,a6,a0
    80001068:	20060663          	beqz	a2,80001274 <matmul+0x22c>
    8000106c:	00261e13          	slli	t3,a2,0x2
    80001070:	00190593          	addi	a1,s2,1
    80001074:	01280533          	add	a0,a6,s2
    80001078:	00000493          	li	s1,0
    8000107c:	03c90a33          	mul	s4,s2,t3
    80001080:	03c582b3          	mul	t0,a1,t3
    80001084:	01478433          	add	s0,a5,s4
    80001088:	01468a33          	add	s4,a3,s4
    8000108c:	005689b3          	add	s3,a3,t0
    80001090:	1ca97a63          	bleu	a0,s2,80001264 <matmul+0x21c>
    80001094:	00098e93          	mv	t4,s3
    80001098:	000a0f93          	mv	t6,s4
    8000109c:	00040393          	mv	t2,s0
    800010a0:	00090293          	mv	t0,s2
    800010a4:	41fe8333          	sub	t1,t4,t6
    800010a8:	ffc30693          	addi	a3,t1,-4
    800010ac:	0026d793          	srli	a5,a3,0x2
    800010b0:	00178893          	addi	a7,a5,1
    800010b4:	0078ff13          	andi	t5,a7,7
    800010b8:	00070793          	mv	a5,a4
    800010bc:	000f8313          	mv	t1,t6
    800010c0:	00000693          	li	a3,0
    800010c4:	0c0f0e63          	beqz	t5,800011a0 <matmul+0x158>
    800010c8:	00100813          	li	a6,1
    800010cc:	0b0f0c63          	beq	t5,a6,80001184 <matmul+0x13c>
    800010d0:	00200593          	li	a1,2
    800010d4:	08bf0c63          	beq	t5,a1,8000116c <matmul+0x124>
    800010d8:	00300893          	li	a7,3
    800010dc:	071f0c63          	beq	t5,a7,80001154 <matmul+0x10c>
    800010e0:	00400813          	li	a6,4
    800010e4:	050f0c63          	beq	t5,a6,8000113c <matmul+0xf4>
    800010e8:	00500593          	li	a1,5
    800010ec:	02bf0c63          	beq	t5,a1,80001124 <matmul+0xdc>
    800010f0:	00600893          	li	a7,6
    800010f4:	011f0c63          	beq	t5,a7,8000110c <matmul+0xc4>
    800010f8:	000fa683          	lw	a3,0(t6)
    800010fc:	00072f03          	lw	t5,0(a4)
    80001100:	004f8313          	addi	t1,t6,4
    80001104:	01c707b3          	add	a5,a4,t3
    80001108:	03e686bb          	mulw	a3,a3,t5
    8000110c:	00032803          	lw	a6,0(t1)
    80001110:	0007a583          	lw	a1,0(a5)
    80001114:	00430313          	addi	t1,t1,4
    80001118:	01c787b3          	add	a5,a5,t3
    8000111c:	02b808bb          	mulw	a7,a6,a1
    80001120:	00d886bb          	addw	a3,a7,a3
    80001124:	00032f03          	lw	t5,0(t1)
    80001128:	0007a803          	lw	a6,0(a5)
    8000112c:	00430313          	addi	t1,t1,4
    80001130:	01c787b3          	add	a5,a5,t3
    80001134:	030f05bb          	mulw	a1,t5,a6
    80001138:	00d586bb          	addw	a3,a1,a3
    8000113c:	00032883          	lw	a7,0(t1)
    80001140:	0007af03          	lw	t5,0(a5)
    80001144:	00430313          	addi	t1,t1,4
    80001148:	01c787b3          	add	a5,a5,t3
    8000114c:	03e8883b          	mulw	a6,a7,t5
    80001150:	00d806bb          	addw	a3,a6,a3
    80001154:	00032883          	lw	a7,0(t1)
    80001158:	0007a583          	lw	a1,0(a5)
    8000115c:	00430313          	addi	t1,t1,4
    80001160:	01c787b3          	add	a5,a5,t3
    80001164:	02b88f3b          	mulw	t5,a7,a1
    80001168:	00df06bb          	addw	a3,t5,a3
    8000116c:	00032803          	lw	a6,0(t1)
    80001170:	0007a883          	lw	a7,0(a5)
    80001174:	00430313          	addi	t1,t1,4
    80001178:	01c787b3          	add	a5,a5,t3
    8000117c:	031805bb          	mulw	a1,a6,a7
    80001180:	00d586bb          	addw	a3,a1,a3
    80001184:	00032f03          	lw	t5,0(t1)
    80001188:	0007a803          	lw	a6,0(a5)
    8000118c:	00430313          	addi	t1,t1,4
    80001190:	01c787b3          	add	a5,a5,t3
    80001194:	030f08bb          	mulw	a7,t5,a6
    80001198:	00d886bb          	addw	a3,a7,a3
    8000119c:	0a6e8863          	beq	t4,t1,8000124c <matmul+0x204>
    800011a0:	00032803          	lw	a6,0(t1)
    800011a4:	0007a583          	lw	a1,0(a5)
    800011a8:	01c787b3          	add	a5,a5,t3
    800011ac:	00430f13          	addi	t5,t1,4
    800011b0:	02b808bb          	mulw	a7,a6,a1
    800011b4:	00432803          	lw	a6,4(t1)
    800011b8:	0007a583          	lw	a1,0(a5)
    800011bc:	01c787b3          	add	a5,a5,t3
    800011c0:	02030313          	addi	t1,t1,32
    800011c4:	00d886bb          	addw	a3,a7,a3
    800011c8:	02b808bb          	mulw	a7,a6,a1
    800011cc:	fe832803          	lw	a6,-24(t1)
    800011d0:	0007a583          	lw	a1,0(a5)
    800011d4:	01c787b3          	add	a5,a5,t3
    800011d8:	00d886bb          	addw	a3,a7,a3
    800011dc:	02b808bb          	mulw	a7,a6,a1
    800011e0:	0007a583          	lw	a1,0(a5)
    800011e4:	008f2803          	lw	a6,8(t5)
    800011e8:	01c787b3          	add	a5,a5,t3
    800011ec:	00d886bb          	addw	a3,a7,a3
    800011f0:	02b808bb          	mulw	a7,a6,a1
    800011f4:	0007a583          	lw	a1,0(a5)
    800011f8:	00cf2803          	lw	a6,12(t5)
    800011fc:	01c787b3          	add	a5,a5,t3
    80001200:	00d886bb          	addw	a3,a7,a3
    80001204:	02b808bb          	mulw	a7,a6,a1
    80001208:	0007a583          	lw	a1,0(a5)
    8000120c:	010f2803          	lw	a6,16(t5)
    80001210:	01c787b3          	add	a5,a5,t3
    80001214:	00d886bb          	addw	a3,a7,a3
    80001218:	02b808bb          	mulw	a7,a6,a1
    8000121c:	0007a583          	lw	a1,0(a5)
    80001220:	014f2803          	lw	a6,20(t5)
    80001224:	01c787b3          	add	a5,a5,t3
    80001228:	018f2f03          	lw	t5,24(t5)
    8000122c:	00d886bb          	addw	a3,a7,a3
    80001230:	02b808bb          	mulw	a7,a6,a1
    80001234:	0007a583          	lw	a1,0(a5)
    80001238:	01c787b3          	add	a5,a5,t3
    8000123c:	00d8883b          	addw	a6,a7,a3
    80001240:	02bf06bb          	mulw	a3,t5,a1
    80001244:	010686bb          	addw	a3,a3,a6
    80001248:	f46e9ce3          	bne	t4,t1,800011a0 <matmul+0x158>
    8000124c:	00d3a023          	sw	a3,0(t2)
    80001250:	00128293          	addi	t0,t0,1 # 2001 <_tbss_end+0x1f7d>
    80001254:	01c383b3          	add	t2,t2,t3
    80001258:	01cf8fb3          	add	t6,t6,t3
    8000125c:	01ce8eb3          	add	t4,t4,t3
    80001260:	e4a292e3          	bne	t0,a0,800010a4 <matmul+0x5c>
    80001264:	00148493          	addi	s1,s1,1
    80001268:	00470713          	addi	a4,a4,4
    8000126c:	00440413          	addi	s0,s0,4
    80001270:	e29610e3          	bne	a2,s1,80001090 <matmul+0x48>
    80001274:	02813403          	ld	s0,40(sp)
    80001278:	02013483          	ld	s1,32(sp)
    8000127c:	01813903          	ld	s2,24(sp)
    80001280:	01013983          	ld	s3,16(sp)
    80001284:	00813a03          	ld	s4,8(sp)
    80001288:	03010113          	addi	sp,sp,48
    8000128c:	00008067          	ret
    80001290:	0000                	unimp
	...

0000000080001294 <barrier>:
    80001294:	0ff0000f          	fence
    80001298:	00022703          	lw	a4,0(tp) # 0 <_tdata_begin>
    8000129c:	00002697          	auipc	a3,0x2
    800012a0:	9e068693          	addi	a3,a3,-1568 # 80002c7c <count.3042>
    800012a4:	00100613          	li	a2,1
    800012a8:	00173313          	seqz	t1,a4
    800012ac:	00622023          	sw	t1,0(tp) # 0 <_tdata_begin>
    800012b0:	0f50000f          	fence	iorw,ow
    800012b4:	04c6a3af          	amoadd.w.aq	t2,a2,(a3)
    800012b8:	fff5051b          	addiw	a0,a0,-1
    800012bc:	0003859b          	sext.w	a1,t2
    800012c0:	02b50063          	beq	a0,a1,800012e0 <barrier+0x4c>
    800012c4:	00022803          	lw	a6,0(tp) # 0 <_tdata_begin>
    800012c8:	00002897          	auipc	a7,0x2
    800012cc:	9b088893          	addi	a7,a7,-1616 # 80002c78 <sense.3041>
    800012d0:	0008ae03          	lw	t3,0(a7)
    800012d4:	ffc81ee3          	bne	a6,t3,800012d0 <barrier+0x3c>
    800012d8:	0ff0000f          	fence
    800012dc:	00008067          	ret
    800012e0:	00022e83          	lw	t4,0(tp) # 0 <_tdata_begin>
    800012e4:	00002717          	auipc	a4,0x2
    800012e8:	98072c23          	sw	zero,-1640(a4) # 80002c7c <count.3042>
    800012ec:	00002717          	auipc	a4,0x2
    800012f0:	99d72623          	sw	t4,-1652(a4) # 80002c78 <sense.3041>
    800012f4:	fe5ff06f          	j	800012d8 <barrier+0x44>

00000000800012f8 <thread_entry>:
    800012f8:	fd010113          	addi	sp,sp,-48
    800012fc:	02813023          	sd	s0,32(sp)
    80001300:	00913c23          	sd	s1,24(sp)
    80001304:	02113423          	sd	ra,40(sp)
    80001308:	01213823          	sd	s2,16(sp)
    8000130c:	01313423          	sd	s3,8(sp)
    80001310:	00050413          	mv	s0,a0
    80001314:	00058493          	mv	s1,a1
    80001318:	b00029f3          	csrr	s3,mcycle
    8000131c:	b0202973          	csrr	s2,minstret
    80001320:	00002797          	auipc	a5,0x2
    80001324:	96078793          	addi	a5,a5,-1696 # 80002c80 <results_data.3065>
    80001328:	00001717          	auipc	a4,0x1
    8000132c:	d5070713          	addi	a4,a4,-688 # 80002078 <input2_data>
    80001330:	00001697          	auipc	a3,0x1
    80001334:	14868693          	addi	a3,a3,328 # 80002478 <input1_data>
    80001338:	01000613          	li	a2,16
    8000133c:	00000097          	auipc	ra,0x0
    80001340:	d0c080e7          	jalr	-756(ra) # 80001048 <matmul>
    80001344:	00048513          	mv	a0,s1
    80001348:	00000097          	auipc	ra,0x0
    8000134c:	f4c080e7          	jalr	-180(ra) # 80001294 <barrier>
    80001350:	b00027f3          	csrr	a5,mcycle
    80001354:	b02026f3          	csrr	a3,minstret
    80001358:	04040e63          	beqz	s0,800013b4 <thread_entry+0xbc>
    8000135c:	00002f97          	auipc	t6,0x2
    80001360:	924f8f93          	addi	t6,t6,-1756 # 80002c80 <results_data.3065>
    80001364:	00001417          	auipc	s0,0x1
    80001368:	51440413          	addi	s0,s0,1300 # 80002878 <verify_data>
    8000136c:	00000513          	li	a0,0
    80001370:	10000893          	li	a7,256
    80001374:	000fa603          	lw	a2,0(t6)
    80001378:	00042583          	lw	a1,0(s0)
    8000137c:	004fae03          	lw	t3,4(t6)
    80001380:	00442e83          	lw	t4,4(s0)
    80001384:	000e0f1b          	sext.w	t5,t3
    80001388:	02c59263          	bne	a1,a2,800013ac <thread_entry+0xb4>
    8000138c:	0025051b          	addiw	a0,a0,2
    80001390:	01df1a63          	bne	t5,t4,800013a4 <thread_entry+0xac>
    80001394:	008f8f93          	addi	t6,t6,8
    80001398:	00840413          	addi	s0,s0,8
    8000139c:	fd151ce3          	bne	a0,a7,80001374 <thread_entry+0x7c>
    800013a0:	00000513          	li	a0,0
    800013a4:	00000097          	auipc	ra,0x0
    800013a8:	5c8080e7          	jalr	1480(ra) # 8000196c <exit>
    800013ac:	0015051b          	addiw	a0,a0,1
    800013b0:	ff5ff06f          	j	800013a4 <thread_entry+0xac>
    800013b4:	413780b3          	sub	ra,a5,s3
    800013b8:	00a00713          	li	a4,10
    800013bc:	02e08333          	mul	t1,ra,a4
    800013c0:	412682b3          	sub	t0,a3,s2
    800013c4:	00008613          	mv	a2,ra
    800013c8:	00c0d693          	srli	a3,ra,0xc
    800013cc:	00001597          	auipc	a1,0x1
    800013d0:	a8458593          	addi	a1,a1,-1404 # 80001e50 <main+0x2c>
    800013d4:	00001517          	auipc	a0,0x1
    800013d8:	acc50513          	addi	a0,a0,-1332 # 80001ea0 <main+0x7c>
    800013dc:	02535833          	divu	a6,t1,t0
    800013e0:	00c35393          	srli	t2,t1,0xc
    800013e4:	02e87833          	remu	a6,a6,a4
    800013e8:	0250d7b3          	divu	a5,ra,t0
    800013ec:	02e3f733          	remu	a4,t2,a4
    800013f0:	678000ef          	jal	ra,80001a68 <printf>
    800013f4:	f69ff06f          	j	8000135c <thread_entry+0x64>
    800013f8:	0000                	unimp
	...

00000000800013fc <vprintfmt>:
    800013fc:	ea010113          	addi	sp,sp,-352
    80001400:	14813823          	sd	s0,336(sp)
    80001404:	14913423          	sd	s1,328(sp)
    80001408:	15213023          	sd	s2,320(sp)
    8000140c:	13413823          	sd	s4,304(sp)
    80001410:	13513423          	sd	s5,296(sp)
    80001414:	13613023          	sd	s6,288(sp)
    80001418:	14113c23          	sd	ra,344(sp)
    8000141c:	13313c23          	sd	s3,312(sp)
    80001420:	11713c23          	sd	s7,280(sp)
    80001424:	11813823          	sd	s8,272(sp)
    80001428:	11913423          	sd	s9,264(sp)
    8000142c:	00050913          	mv	s2,a0
    80001430:	00058493          	mv	s1,a1
    80001434:	00060413          	mv	s0,a2
    80001438:	00068b13          	mv	s6,a3
    8000143c:	02500a13          	li	s4,37
    80001440:	00001a97          	auipc	s5,0x1
    80001444:	ae0a8a93          	addi	s5,s5,-1312 # 80001f20 <main+0xfc>
    80001448:	0140006f          	j	8000145c <vprintfmt+0x60>
    8000144c:	06050063          	beqz	a0,800014ac <vprintfmt+0xb0>
    80001450:	00048593          	mv	a1,s1
    80001454:	00140413          	addi	s0,s0,1
    80001458:	000900e7          	jalr	s2
    8000145c:	00044503          	lbu	a0,0(s0)
    80001460:	ff4516e3          	bne	a0,s4,8000144c <vprintfmt+0x50>
    80001464:	00144683          	lbu	a3,1(s0)
    80001468:	00140c93          	addi	s9,s0,1
    8000146c:	000c8713          	mv	a4,s9
    80001470:	02000c13          	li	s8,32
    80001474:	fff00993          	li	s3,-1
    80001478:	fff00b93          	li	s7,-1
    8000147c:	00000593          	li	a1,0
    80001480:	05500613          	li	a2,85
    80001484:	00900513          	li	a0,9
    80001488:	fdd6879b          	addiw	a5,a3,-35
    8000148c:	0ff7f093          	andi	ra,a5,255
    80001490:	00170413          	addi	s0,a4,1
    80001494:	2a166863          	bltu	a2,ra,80001744 <vprintfmt+0x348>
    80001498:	00209293          	slli	t0,ra,0x2
    8000149c:	01528333          	add	t1,t0,s5
    800014a0:	00032383          	lw	t2,0(t1)
    800014a4:	01538833          	add	a6,t2,s5
    800014a8:	00080067          	jr	a6
    800014ac:	15813083          	ld	ra,344(sp)
    800014b0:	15013403          	ld	s0,336(sp)
    800014b4:	14813483          	ld	s1,328(sp)
    800014b8:	14013903          	ld	s2,320(sp)
    800014bc:	13813983          	ld	s3,312(sp)
    800014c0:	13013a03          	ld	s4,304(sp)
    800014c4:	12813a83          	ld	s5,296(sp)
    800014c8:	12013b03          	ld	s6,288(sp)
    800014cc:	11813b83          	ld	s7,280(sp)
    800014d0:	11013c03          	ld	s8,272(sp)
    800014d4:	10813c83          	ld	s9,264(sp)
    800014d8:	16010113          	addi	sp,sp,352
    800014dc:	00008067          	ret
    800014e0:	00800f93          	li	t6,8
    800014e4:	00100793          	li	a5,1
    800014e8:	008b0293          	addi	t0,s6,8
    800014ec:	12b7d863          	ble	a1,a5,8000161c <vprintfmt+0x220>
    800014f0:	000b3303          	ld	t1,0(s6)
    800014f4:	00028b13          	mv	s6,t0
    800014f8:	03f37eb3          	remu	t4,t1,t6
    800014fc:	000c0c1b          	sext.w	s8,s8
    80001500:	01d12023          	sw	t4,0(sp)
    80001504:	25f36a63          	bltu	t1,t6,80001758 <vprintfmt+0x35c>
    80001508:	00410393          	addi	t2,sp,4
    8000150c:	00100993          	li	s3,1
    80001510:	0080006f          	j	80001518 <vprintfmt+0x11c>
    80001514:	000c8993          	mv	s3,s9
    80001518:	03f35333          	divu	t1,t1,t6
    8000151c:	00438393          	addi	t2,t2,4
    80001520:	00198c9b          	addiw	s9,s3,1
    80001524:	03f37833          	remu	a6,t1,t6
    80001528:	ff03ae23          	sw	a6,-4(t2)
    8000152c:	fff374e3          	bleu	t6,t1,80001514 <vprintfmt+0x118>
    80001530:	017cde63          	ble	s7,s9,8000154c <vprintfmt+0x150>
    80001534:	000b8b9b          	sext.w	s7,s7
    80001538:	fffb8b9b          	addiw	s7,s7,-1
    8000153c:	00048593          	mv	a1,s1
    80001540:	000c0513          	mv	a0,s8
    80001544:	000900e7          	jalr	s2
    80001548:	ff7cc8e3          	blt	s9,s7,80001538 <vprintfmt+0x13c>
    8000154c:	00299613          	slli	a2,s3,0x2
    80001550:	10010893          	addi	a7,sp,256
    80001554:	00c88e33          	add	t3,a7,a2
    80001558:	f00e2e83          	lw	t4,-256(t3)
    8000155c:	fff98f1b          	addiw	t5,s3,-1
    80001560:	002f1f93          	slli	t6,t5,0x2
    80001564:	01f10c33          	add	s8,sp,t6
    80001568:	00900c93          	li	s9,9
    8000156c:	0100006f          	j	8000157c <vprintfmt+0x180>
    80001570:	000c2e83          	lw	t4,0(s8)
    80001574:	fff98993          	addi	s3,s3,-1
    80001578:	ffcc0c13          	addi	s8,s8,-4
    8000157c:	03000793          	li	a5,48
    80001580:	01dcf463          	bleu	t4,s9,80001588 <vprintfmt+0x18c>
    80001584:	05700793          	li	a5,87
    80001588:	00048593          	mv	a1,s1
    8000158c:	01d7853b          	addw	a0,a5,t4
    80001590:	000900e7          	jalr	s2
    80001594:	0009829b          	sext.w	t0,s3
    80001598:	fc504ce3          	bgtz	t0,80001570 <vprintfmt+0x174>
    8000159c:	ec1ff06f          	j	8000145c <vprintfmt+0x60>
    800015a0:	03000513          	li	a0,48
    800015a4:	00048593          	mv	a1,s1
    800015a8:	000900e7          	jalr	s2
    800015ac:	00048593          	mv	a1,s1
    800015b0:	07800513          	li	a0,120
    800015b4:	000900e7          	jalr	s2
    800015b8:	008b0293          	addi	t0,s6,8
    800015bc:	01000f93          	li	t6,16
    800015c0:	f31ff06f          	j	800014f0 <vprintfmt+0xf4>
    800015c4:	000b3c83          	ld	s9,0(s6)
    800015c8:	008b0b13          	addi	s6,s6,8
    800015cc:	200c8c63          	beqz	s9,800017e4 <vprintfmt+0x3e8>
    800015d0:	1b705463          	blez	s7,80001778 <vprintfmt+0x37c>
    800015d4:	02d00513          	li	a0,45
    800015d8:	1eac0e63          	beq	s8,a0,800017d4 <vprintfmt+0x3d8>
    800015dc:	000b8e1b          	sext.w	t3,s7
    800015e0:	20098e63          	beqz	s3,800017fc <vprintfmt+0x400>
    800015e4:	000cc603          	lbu	a2,0(s9)
    800015e8:	20060a63          	beqz	a2,800017fc <vprintfmt+0x400>
    800015ec:	001c8f13          	addi	t5,s9,1
    800015f0:	013c8eb3          	add	t4,s9,s3
    800015f4:	25ee8463          	beq	t4,t5,8000183c <vprintfmt+0x440>
    800015f8:	001f0713          	addi	a4,t5,1
    800015fc:	fff74683          	lbu	a3,-1(a4)
    80001600:	16068663          	beqz	a3,8000176c <vprintfmt+0x370>
    80001604:	00070f13          	mv	t5,a4
    80001608:	fedff06f          	j	800015f4 <vprintfmt+0x1f8>
    8000160c:	00100793          	li	a5,1
    80001610:	00a00f93          	li	t6,10
    80001614:	008b0293          	addi	t0,s6,8
    80001618:	ecb7cce3          	blt	a5,a1,800014f0 <vprintfmt+0xf4>
    8000161c:	ec059ae3          	bnez	a1,800014f0 <vprintfmt+0xf4>
    80001620:	000b6303          	lwu	t1,0(s6)
    80001624:	00028b13          	mv	s6,t0
    80001628:	ed1ff06f          	j	800014f8 <vprintfmt+0xfc>
    8000162c:	00174683          	lbu	a3,1(a4)
    80001630:	00040713          	mv	a4,s0
    80001634:	e55ff06f          	j	80001488 <vprintfmt+0x8c>
    80001638:	00048593          	mv	a1,s1
    8000163c:	02500513          	li	a0,37
    80001640:	000900e7          	jalr	s2
    80001644:	e19ff06f          	j	8000145c <vprintfmt+0x60>
    80001648:	01000f93          	li	t6,16
    8000164c:	e99ff06f          	j	800014e4 <vprintfmt+0xe8>
    80001650:	000b2983          	lw	s3,0(s6)
    80001654:	00174683          	lbu	a3,1(a4)
    80001658:	008b0b13          	addi	s6,s6,8
    8000165c:	00040713          	mv	a4,s0
    80001660:	e20bd4e3          	bgez	s7,80001488 <vprintfmt+0x8c>
    80001664:	00098b93          	mv	s7,s3
    80001668:	fff00993          	li	s3,-1
    8000166c:	e1dff06f          	j	80001488 <vprintfmt+0x8c>
    80001670:	00174683          	lbu	a3,1(a4)
    80001674:	02d00c13          	li	s8,45
    80001678:	00040713          	mv	a4,s0
    8000167c:	e0dff06f          	j	80001488 <vprintfmt+0x8c>
    80001680:	000b8e93          	mv	t4,s7
    80001684:	000bd463          	bgez	s7,8000168c <vprintfmt+0x290>
    80001688:	00000e93          	li	t4,0
    8000168c:	00174683          	lbu	a3,1(a4)
    80001690:	000e8b9b          	sext.w	s7,t4
    80001694:	00040713          	mv	a4,s0
    80001698:	df1ff06f          	j	80001488 <vprintfmt+0x8c>
    8000169c:	00174683          	lbu	a3,1(a4)
    800016a0:	03000c13          	li	s8,48
    800016a4:	00040713          	mv	a4,s0
    800016a8:	de1ff06f          	j	80001488 <vprintfmt+0x8c>
    800016ac:	fd06899b          	addiw	s3,a3,-48
    800016b0:	00174683          	lbu	a3,1(a4)
    800016b4:	00040713          	mv	a4,s0
    800016b8:	fd06809b          	addiw	ra,a3,-48
    800016bc:	00068e1b          	sext.w	t3,a3
    800016c0:	fa1560e3          	bltu	a0,ra,80001660 <vprintfmt+0x264>
    800016c4:	00170713          	addi	a4,a4,1
    800016c8:	0029941b          	slliw	s0,s3,0x2
    800016cc:	00074683          	lbu	a3,0(a4)
    800016d0:	0134033b          	addw	t1,s0,s3
    800016d4:	0013139b          	slliw	t2,t1,0x1
    800016d8:	01c3883b          	addw	a6,t2,t3
    800016dc:	fd06889b          	addiw	a7,a3,-48
    800016e0:	fd08099b          	addiw	s3,a6,-48
    800016e4:	00068e1b          	sext.w	t3,a3
    800016e8:	fd157ee3          	bleu	a7,a0,800016c4 <vprintfmt+0x2c8>
    800016ec:	f75ff06f          	j	80001660 <vprintfmt+0x264>
    800016f0:	000b2503          	lw	a0,0(s6)
    800016f4:	00048593          	mv	a1,s1
    800016f8:	008b0b13          	addi	s6,s6,8
    800016fc:	000900e7          	jalr	s2
    80001700:	d5dff06f          	j	8000145c <vprintfmt+0x60>
    80001704:	00100093          	li	ra,1
    80001708:	008b0c93          	addi	s9,s6,8
    8000170c:	0ab0de63          	ble	a1,ra,800017c8 <vprintfmt+0x3cc>
    80001710:	000b3983          	ld	s3,0(s6)
    80001714:	1009d263          	bgez	s3,80001818 <vprintfmt+0x41c>
    80001718:	00048593          	mv	a1,s1
    8000171c:	02d00513          	li	a0,45
    80001720:	000900e7          	jalr	s2
    80001724:	000c8b13          	mv	s6,s9
    80001728:	41300333          	neg	t1,s3
    8000172c:	00a00f93          	li	t6,10
    80001730:	dc9ff06f          	j	800014f8 <vprintfmt+0xfc>
    80001734:	00174683          	lbu	a3,1(a4)
    80001738:	0015859b          	addiw	a1,a1,1
    8000173c:	00040713          	mv	a4,s0
    80001740:	d49ff06f          	j	80001488 <vprintfmt+0x8c>
    80001744:	00048593          	mv	a1,s1
    80001748:	02500513          	li	a0,37
    8000174c:	000900e7          	jalr	s2
    80001750:	000c8413          	mv	s0,s9
    80001754:	d09ff06f          	j	8000145c <vprintfmt+0x60>
    80001758:	00100513          	li	a0,1
    8000175c:	00000993          	li	s3,0
    80001760:	00100c93          	li	s9,1
    80001764:	dd7548e3          	blt	a0,s7,80001534 <vprintfmt+0x138>
    80001768:	df5ff06f          	j	8000155c <vprintfmt+0x160>
    8000176c:	419f08b3          	sub	a7,t5,s9
    80001770:	411e0bbb          	subw	s7,t3,a7
    80001774:	09704463          	bgtz	s7,800017fc <vprintfmt+0x400>
    80001778:	000cc503          	lbu	a0,0(s9)
    8000177c:	ce0500e3          	beqz	a0,8000145c <vprintfmt+0x60>
    80001780:	fff00c13          	li	s8,-1
    80001784:	0209dc63          	bgez	s3,800017bc <vprintfmt+0x3c0>
    80001788:	00048593          	mv	a1,s1
    8000178c:	001c8c93          	addi	s9,s9,1
    80001790:	000900e7          	jalr	s2
    80001794:	000cc503          	lbu	a0,0(s9)
    80001798:	fffb8b9b          	addiw	s7,s7,-1
    8000179c:	fe0514e3          	bnez	a0,80001784 <vprintfmt+0x388>
    800017a0:	cb705ee3          	blez	s7,8000145c <vprintfmt+0x60>
    800017a4:	fffb8b9b          	addiw	s7,s7,-1
    800017a8:	00048593          	mv	a1,s1
    800017ac:	02000513          	li	a0,32
    800017b0:	000900e7          	jalr	s2
    800017b4:	fe0b98e3          	bnez	s7,800017a4 <vprintfmt+0x3a8>
    800017b8:	ca5ff06f          	j	8000145c <vprintfmt+0x60>
    800017bc:	fff9899b          	addiw	s3,s3,-1
    800017c0:	fd8994e3          	bne	s3,s8,80001788 <vprintfmt+0x38c>
    800017c4:	fddff06f          	j	800017a0 <vprintfmt+0x3a4>
    800017c8:	f40594e3          	bnez	a1,80001710 <vprintfmt+0x314>
    800017cc:	000b2983          	lw	s3,0(s6)
    800017d0:	f45ff06f          	j	80001714 <vprintfmt+0x318>
    800017d4:	000cc503          	lbu	a0,0(s9)
    800017d8:	fc0506e3          	beqz	a0,800017a4 <vprintfmt+0x3a8>
    800017dc:	fff00c13          	li	s8,-1
    800017e0:	fa5ff06f          	j	80001784 <vprintfmt+0x388>
    800017e4:	05705263          	blez	s7,80001828 <vprintfmt+0x42c>
    800017e8:	02d00593          	li	a1,45
    800017ec:	02bc0e63          	beq	s8,a1,80001828 <vprintfmt+0x42c>
    800017f0:	00000c97          	auipc	s9,0x0
    800017f4:	6e8c8c93          	addi	s9,s9,1768 # 80001ed8 <main+0xb4>
    800017f8:	de5ff06f          	j	800015dc <vprintfmt+0x1e0>
    800017fc:	000c0c1b          	sext.w	s8,s8
    80001800:	fffb8b9b          	addiw	s7,s7,-1
    80001804:	00048593          	mv	a1,s1
    80001808:	000c0513          	mv	a0,s8
    8000180c:	000900e7          	jalr	s2
    80001810:	fe0b98e3          	bnez	s7,80001800 <vprintfmt+0x404>
    80001814:	f65ff06f          	j	80001778 <vprintfmt+0x37c>
    80001818:	00098313          	mv	t1,s3
    8000181c:	000c8b13          	mv	s6,s9
    80001820:	00a00f93          	li	t6,10
    80001824:	cd5ff06f          	j	800014f8 <vprintfmt+0xfc>
    80001828:	00000c97          	auipc	s9,0x0
    8000182c:	6b0c8c93          	addi	s9,s9,1712 # 80001ed8 <main+0xb4>
    80001830:	02800513          	li	a0,40
    80001834:	fff00c13          	li	s8,-1
    80001838:	f4dff06f          	j	80001784 <vprintfmt+0x388>
    8000183c:	419e8bb3          	sub	s7,t4,s9
    80001840:	417e0bbb          	subw	s7,t3,s7
    80001844:	fb704ce3          	bgtz	s7,800017fc <vprintfmt+0x400>
    80001848:	f31ff06f          	j	80001778 <vprintfmt+0x37c>

000000008000184c <sprintf_putch.2912>:
    8000184c:	0005b783          	ld	a5,0(a1)
    80001850:	00a78023          	sb	a0,0(a5)
    80001854:	0005b283          	ld	t0,0(a1)
    80001858:	00128313          	addi	t1,t0,1
    8000185c:	0065b023          	sd	t1,0(a1)
    80001860:	00008067          	ret

0000000080001864 <putchar>:
    80001864:	08022803          	lw	a6,128(tp) # 80 <buflen.2798>
    80001868:	04020293          	addi	t0,tp,64 # 40 <buf.2797>
    8000186c:	f8010113          	addi	sp,sp,-128
    80001870:	0018069b          	addiw	a3,a6,1
    80001874:	01028333          	add	t1,t0,a6
    80001878:	03f10893          	addi	a7,sp,63
    8000187c:	08d22023          	sw	a3,128(tp) # 80 <buflen.2798>
    80001880:	00a30023          	sb	a0,0(t1)
    80001884:	00a00393          	li	t2,10
    80001888:	fc08fe13          	andi	t3,a7,-64
    8000188c:	00750c63          	beq	a0,t2,800018a4 <putchar+0x40>
    80001890:	04000513          	li	a0,64
    80001894:	00a68863          	beq	a3,a0,800018a4 <putchar+0x40>
    80001898:	00000513          	li	a0,0
    8000189c:	08010113          	addi	sp,sp,128
    800018a0:	00008067          	ret
    800018a4:	04000e93          	li	t4,64
    800018a8:	01de3023          	sd	t4,0(t3)
    800018ac:	00100f93          	li	t6,1
    800018b0:	01fe3423          	sd	t6,8(t3)
    800018b4:	04020713          	addi	a4,tp,64 # 40 <buf.2797>
    800018b8:	00ee3823          	sd	a4,16(t3)
    800018bc:	00de3c23          	sd	a3,24(t3)
    800018c0:	0ff0000f          	fence
    800018c4:	fffff797          	auipc	a5,0xfffff
    800018c8:	73c7be23          	sd	t3,1852(a5) # 80001000 <tohost>
    800018cc:	fffff817          	auipc	a6,0xfffff
    800018d0:	77480813          	addi	a6,a6,1908 # 80001040 <fromhost>
    800018d4:	00083603          	ld	a2,0(a6)
    800018d8:	fe060ee3          	beqz	a2,800018d4 <putchar+0x70>
    800018dc:	fffff797          	auipc	a5,0xfffff
    800018e0:	7607b223          	sd	zero,1892(a5) # 80001040 <fromhost>
    800018e4:	0ff0000f          	fence
    800018e8:	08022023          	sw	zero,128(tp) # 80 <buflen.2798>
    800018ec:	000e3783          	ld	a5,0(t3)
    800018f0:	00000513          	li	a0,0
    800018f4:	08010113          	addi	sp,sp,128
    800018f8:	00008067          	ret

00000000800018fc <setStats>:
    800018fc:	b00027f3          	csrr	a5,mcycle
    80001900:	c0818713          	addi	a4,gp,-1016 # 80003080 <counters>
    80001904:	00051c63          	bnez	a0,8000191c <setStats+0x20>
    80001908:	00073683          	ld	a3,0(a4)
    8000190c:	00000617          	auipc	a2,0x0
    80001910:	5d460613          	addi	a2,a2,1492 # 80001ee0 <main+0xbc>
    80001914:	c0c1bc23          	sd	a2,-1000(gp) # 80003090 <counter_names>
    80001918:	40d787b3          	sub	a5,a5,a3
    8000191c:	c0f1b423          	sd	a5,-1016(gp) # 80003080 <counters>
    80001920:	b02023f3          	csrr	t2,minstret
    80001924:	00051c63          	bnez	a0,8000193c <setStats+0x40>
    80001928:	00873283          	ld	t0,8(a4)
    8000192c:	00000317          	auipc	t1,0x0
    80001930:	5bc30313          	addi	t1,t1,1468 # 80001ee8 <main+0xc4>
    80001934:	c261b023          	sd	t1,-992(gp) # 80003098 <counter_names+0x8>
    80001938:	405383b3          	sub	t2,t2,t0
    8000193c:	c071b823          	sd	t2,-1008(gp) # 80003088 <counters+0x8>
    80001940:	00008067          	ret

0000000080001944 <tohost_exit>:
    80001944:	00151793          	slli	a5,a0,0x1
    80001948:	0017e293          	ori	t0,a5,1
    8000194c:	fffff717          	auipc	a4,0xfffff
    80001950:	6a573a23          	sd	t0,1716(a4) # 80001000 <tohost>
    80001954:	0000006f          	j	80001954 <tohost_exit+0x10>

0000000080001958 <handle_trap>:
    80001958:	000017b7          	lui	a5,0x1
    8000195c:	a7378293          	addi	t0,a5,-1421 # a73 <_tbss_end+0x9ef>
    80001960:	fffff717          	auipc	a4,0xfffff
    80001964:	6a573023          	sd	t0,1696(a4) # 80001000 <tohost>
    80001968:	0000006f          	j	80001968 <handle_trap+0x10>

000000008000196c <exit>:
    8000196c:	ff010113          	addi	sp,sp,-16
    80001970:	00113423          	sd	ra,8(sp)
    80001974:	fd1ff0ef          	jal	ra,80001944 <tohost_exit>

0000000080001978 <abort>:
    80001978:	10d00793          	li	a5,269
    8000197c:	fffff717          	auipc	a4,0xfffff
    80001980:	68f73223          	sd	a5,1668(a4) # 80001000 <tohost>
    80001984:	0000006f          	j	80001984 <abort+0xc>

0000000080001988 <printstr>:
    80001988:	00054783          	lbu	a5,0(a0)
    8000198c:	f8010113          	addi	sp,sp,-128
    80001990:	03f10713          	addi	a4,sp,63
    80001994:	00050693          	mv	a3,a0
    80001998:	fc077293          	andi	t0,a4,-64
    8000199c:	06078263          	beqz	a5,80001a00 <printstr+0x78>
    800019a0:	00050613          	mv	a2,a0
    800019a4:	00150513          	addi	a0,a0,1
    800019a8:	00054303          	lbu	t1,0(a0)
    800019ac:	fe031ce3          	bnez	t1,800019a4 <printstr+0x1c>
    800019b0:	40c50533          	sub	a0,a0,a2
    800019b4:	04000393          	li	t2,64
    800019b8:	0072b023          	sd	t2,0(t0)
    800019bc:	00100593          	li	a1,1
    800019c0:	00b2b423          	sd	a1,8(t0)
    800019c4:	00d2b823          	sd	a3,16(t0)
    800019c8:	00a2bc23          	sd	a0,24(t0)
    800019cc:	0ff0000f          	fence
    800019d0:	fffff797          	auipc	a5,0xfffff
    800019d4:	6257b823          	sd	t0,1584(a5) # 80001000 <tohost>
    800019d8:	fffff817          	auipc	a6,0xfffff
    800019dc:	66880813          	addi	a6,a6,1640 # 80001040 <fromhost>
    800019e0:	00083883          	ld	a7,0(a6)
    800019e4:	fe088ee3          	beqz	a7,800019e0 <printstr+0x58>
    800019e8:	fffff797          	auipc	a5,0xfffff
    800019ec:	6407bc23          	sd	zero,1624(a5) # 80001040 <fromhost>
    800019f0:	0ff0000f          	fence
    800019f4:	0002b783          	ld	a5,0(t0)
    800019f8:	08010113          	addi	sp,sp,128
    800019fc:	00008067          	ret
    80001a00:	00000513          	li	a0,0
    80001a04:	fb1ff06f          	j	800019b4 <printstr+0x2c>
    80001a08:	00050463          	beqz	a0,80001a10 <printstr+0x88>
    80001a0c:	0000006f          	j	80001a0c <printstr+0x84>
    80001a10:	00008067          	ret

0000000080001a14 <printhex>:
    80001a14:	fd010113          	addi	sp,sp,-48
    80001a18:	02113423          	sd	ra,40(sp)
    80001a1c:	01710713          	addi	a4,sp,23
    80001a20:	00710813          	addi	a6,sp,7
    80001a24:	00900593          	li	a1,9
    80001a28:	00f57793          	andi	a5,a0,15
    80001a2c:	03000613          	li	a2,48
    80001a30:	0ff7f693          	andi	a3,a5,255
    80001a34:	00f5f463          	bleu	a5,a1,80001a3c <printhex+0x28>
    80001a38:	05700613          	li	a2,87
    80001a3c:	00c680bb          	addw	ra,a3,a2
    80001a40:	00170023          	sb	ra,0(a4)
    80001a44:	fff70713          	addi	a4,a4,-1
    80001a48:	00455513          	srli	a0,a0,0x4
    80001a4c:	fce81ee3          	bne	a6,a4,80001a28 <printhex+0x14>
    80001a50:	00810513          	addi	a0,sp,8
    80001a54:	00010c23          	sb	zero,24(sp)
    80001a58:	f31ff0ef          	jal	ra,80001988 <printstr>
    80001a5c:	02813083          	ld	ra,40(sp)
    80001a60:	03010113          	addi	sp,sp,48
    80001a64:	00008067          	ret

0000000080001a68 <printf>:
    80001a68:	fa010113          	addi	sp,sp,-96
    80001a6c:	02810313          	addi	t1,sp,40
    80001a70:	02b13423          	sd	a1,40(sp)
    80001a74:	02c13823          	sd	a2,48(sp)
    80001a78:	02d13c23          	sd	a3,56(sp)
    80001a7c:	00050613          	mv	a2,a0
    80001a80:	00030693          	mv	a3,t1
    80001a84:	00000517          	auipc	a0,0x0
    80001a88:	de050513          	addi	a0,a0,-544 # 80001864 <putchar>
    80001a8c:	00000593          	li	a1,0
    80001a90:	00113c23          	sd	ra,24(sp)
    80001a94:	04e13023          	sd	a4,64(sp)
    80001a98:	04f13423          	sd	a5,72(sp)
    80001a9c:	05013823          	sd	a6,80(sp)
    80001aa0:	05113c23          	sd	a7,88(sp)
    80001aa4:	00613423          	sd	t1,8(sp)
    80001aa8:	00000097          	auipc	ra,0x0
    80001aac:	954080e7          	jalr	-1708(ra) # 800013fc <vprintfmt>
    80001ab0:	01813083          	ld	ra,24(sp)
    80001ab4:	00000513          	li	a0,0
    80001ab8:	06010113          	addi	sp,sp,96
    80001abc:	00008067          	ret

0000000080001ac0 <sprintf>:
    80001ac0:	fa010113          	addi	sp,sp,-96
    80001ac4:	03010313          	addi	t1,sp,48
    80001ac8:	02813023          	sd	s0,32(sp)
    80001acc:	00a13423          	sd	a0,8(sp)
    80001ad0:	02c13823          	sd	a2,48(sp)
    80001ad4:	02d13c23          	sd	a3,56(sp)
    80001ad8:	00050413          	mv	s0,a0
    80001adc:	00058613          	mv	a2,a1
    80001ae0:	00000517          	auipc	a0,0x0
    80001ae4:	d6c50513          	addi	a0,a0,-660 # 8000184c <sprintf_putch.2912>
    80001ae8:	00810593          	addi	a1,sp,8
    80001aec:	00030693          	mv	a3,t1
    80001af0:	02113423          	sd	ra,40(sp)
    80001af4:	04f13423          	sd	a5,72(sp)
    80001af8:	04e13023          	sd	a4,64(sp)
    80001afc:	05013823          	sd	a6,80(sp)
    80001b00:	05113c23          	sd	a7,88(sp)
    80001b04:	00613c23          	sd	t1,24(sp)
    80001b08:	8f5ff0ef          	jal	ra,800013fc <vprintfmt>
    80001b0c:	00813783          	ld	a5,8(sp)
    80001b10:	00078023          	sb	zero,0(a5)
    80001b14:	00813503          	ld	a0,8(sp)
    80001b18:	02813083          	ld	ra,40(sp)
    80001b1c:	4085053b          	subw	a0,a0,s0
    80001b20:	02013403          	ld	s0,32(sp)
    80001b24:	06010113          	addi	sp,sp,96
    80001b28:	00008067          	ret

0000000080001b2c <memcpy>:
    80001b2c:	00c5e7b3          	or	a5,a1,a2
    80001b30:	00f562b3          	or	t0,a0,a5
    80001b34:	0072f313          	andi	t1,t0,7
    80001b38:	00c506b3          	add	a3,a0,a2
    80001b3c:	02030463          	beqz	t1,80001b64 <memcpy+0x38>
    80001b40:	04d57263          	bleu	a3,a0,80001b84 <memcpy+0x58>
    80001b44:	00c58633          	add	a2,a1,a2
    80001b48:	00050393          	mv	t2,a0
    80001b4c:	00158593          	addi	a1,a1,1
    80001b50:	fff5c703          	lbu	a4,-1(a1)
    80001b54:	00138393          	addi	t2,t2,1
    80001b58:	fee38fa3          	sb	a4,-1(t2)
    80001b5c:	feb618e3          	bne	a2,a1,80001b4c <memcpy+0x20>
    80001b60:	00008067          	ret
    80001b64:	fed57ee3          	bleu	a3,a0,80001b60 <memcpy+0x34>
    80001b68:	00050893          	mv	a7,a0
    80001b6c:	00858593          	addi	a1,a1,8
    80001b70:	ff85b803          	ld	a6,-8(a1)
    80001b74:	00888893          	addi	a7,a7,8
    80001b78:	ff08bc23          	sd	a6,-8(a7)
    80001b7c:	fed8e8e3          	bltu	a7,a3,80001b6c <memcpy+0x40>
    80001b80:	00008067          	ret
    80001b84:	00008067          	ret

0000000080001b88 <memset>:
    80001b88:	00c567b3          	or	a5,a0,a2
    80001b8c:	0077f293          	andi	t0,a5,7
    80001b90:	00c50633          	add	a2,a0,a2
    80001b94:	02028063          	beqz	t0,80001bb4 <memset+0x2c>
    80001b98:	04c57863          	bleu	a2,a0,80001be8 <memset+0x60>
    80001b9c:	0ff5f593          	andi	a1,a1,255
    80001ba0:	00050313          	mv	t1,a0
    80001ba4:	00130313          	addi	t1,t1,1
    80001ba8:	feb30fa3          	sb	a1,-1(t1)
    80001bac:	fe661ce3          	bne	a2,t1,80001ba4 <memset+0x1c>
    80001bb0:	00008067          	ret
    80001bb4:	0ff5f393          	andi	t2,a1,255
    80001bb8:	00839693          	slli	a3,t2,0x8
    80001bbc:	00d3e733          	or	a4,t2,a3
    80001bc0:	01071813          	slli	a6,a4,0x10
    80001bc4:	010768b3          	or	a7,a4,a6
    80001bc8:	02089e13          	slli	t3,a7,0x20
    80001bcc:	01c8eeb3          	or	t4,a7,t3
    80001bd0:	fec570e3          	bleu	a2,a0,80001bb0 <memset+0x28>
    80001bd4:	00050f13          	mv	t5,a0
    80001bd8:	008f0f13          	addi	t5,t5,8
    80001bdc:	ffdf3c23          	sd	t4,-8(t5)
    80001be0:	fecf6ce3          	bltu	t5,a2,80001bd8 <memset+0x50>
    80001be4:	00008067          	ret
    80001be8:	00008067          	ret

0000000080001bec <_init>:
    80001bec:	f4010113          	addi	sp,sp,-192
    80001bf0:	0a813823          	sd	s0,176(sp)
    80001bf4:	0a913423          	sd	s1,168(sp)
    80001bf8:	0a113c23          	sd	ra,184(sp)
    80001bfc:	00020493          	mv	s1,tp
    80001c00:	00020313          	mv	t1,tp
    80001c04:	40648433          	sub	s0,s1,t1
    80001c08:	00040613          	mv	a2,s0
    80001c0c:	09313c23          	sd	s3,152(sp)
    80001c10:	09413823          	sd	s4,144(sp)
    80001c14:	00050993          	mv	s3,a0
    80001c18:	00058a13          	mv	s4,a1
    80001c1c:	00020513          	mv	a0,tp
    80001c20:	c4818593          	addi	a1,gp,-952 # 800030c0 <_end>
    80001c24:	0b213023          	sd	s2,160(sp)
    80001c28:	09513423          	sd	s5,136(sp)
    80001c2c:	00020a93          	mv	s5,tp
    80001c30:	efdff0ef          	jal	ra,80001b2c <memcpy>
    80001c34:	08420513          	addi	a0,tp,132 # 84 <_tbss_end>
    80001c38:	40950633          	sub	a2,a0,s1
    80001c3c:	00000593          	li	a1,0
    80001c40:	008a8533          	add	a0,s5,s0
    80001c44:	00000097          	auipc	ra,0x0
    80001c48:	f44080e7          	jalr	-188(ra) # 80001b88 <memset>
    80001c4c:	00098513          	mv	a0,s3
    80001c50:	000a0593          	mv	a1,s4
    80001c54:	ea4ff0ef          	jal	ra,800012f8 <thread_entry>
    80001c58:	00000593          	li	a1,0
    80001c5c:	00000513          	li	a0,0
    80001c60:	00000097          	auipc	ra,0x0
    80001c64:	1c4080e7          	jalr	452(ra) # 80001e24 <main>
    80001c68:	c0818413          	addi	s0,gp,-1016 # 80003080 <counters>
    80001c6c:	00043683          	ld	a3,0(s0)
    80001c70:	03f10913          	addi	s2,sp,63
    80001c74:	fc097913          	andi	s2,s2,-64
    80001c78:	00050993          	mv	s3,a0
    80001c7c:	04069663          	bnez	a3,80001cc8 <_init+0xdc>
    80001c80:	00843683          	ld	a3,8(s0)
    80001c84:	00069863          	bnez	a3,80001c94 <_init+0xa8>
    80001c88:	00098513          	mv	a0,s3
    80001c8c:	00000097          	auipc	ra,0x0
    80001c90:	cb8080e7          	jalr	-840(ra) # 80001944 <tohost_exit>
    80001c94:	00090493          	mv	s1,s2
    80001c98:	01843603          	ld	a2,24(s0)
    80001c9c:	00048513          	mv	a0,s1
    80001ca0:	00000597          	auipc	a1,0x0
    80001ca4:	27058593          	addi	a1,a1,624 # 80001f10 <main+0xec>
    80001ca8:	00000097          	auipc	ra,0x0
    80001cac:	e18080e7          	jalr	-488(ra) # 80001ac0 <sprintf>
    80001cb0:	00a484b3          	add	s1,s1,a0
    80001cb4:	fc990ae3          	beq	s2,s1,80001c88 <_init+0x9c>
    80001cb8:	00090513          	mv	a0,s2
    80001cbc:	00000097          	auipc	ra,0x0
    80001cc0:	ccc080e7          	jalr	-820(ra) # 80001988 <printstr>
    80001cc4:	fc5ff06f          	j	80001c88 <_init+0x9c>
    80001cc8:	01043603          	ld	a2,16(s0)
    80001ccc:	00000597          	auipc	a1,0x0
    80001cd0:	24458593          	addi	a1,a1,580 # 80001f10 <main+0xec>
    80001cd4:	00090513          	mv	a0,s2
    80001cd8:	00000097          	auipc	ra,0x0
    80001cdc:	de8080e7          	jalr	-536(ra) # 80001ac0 <sprintf>
    80001ce0:	00843683          	ld	a3,8(s0)
    80001ce4:	00a904b3          	add	s1,s2,a0
    80001ce8:	fc0686e3          	beqz	a3,80001cb4 <_init+0xc8>
    80001cec:	fadff06f          	j	80001c98 <_init+0xac>

0000000080001cf0 <strlen>:
    80001cf0:	00054783          	lbu	a5,0(a0)
    80001cf4:	00050713          	mv	a4,a0
    80001cf8:	00078c63          	beqz	a5,80001d10 <strlen+0x20>
    80001cfc:	00150513          	addi	a0,a0,1
    80001d00:	00054283          	lbu	t0,0(a0)
    80001d04:	fe029ce3          	bnez	t0,80001cfc <strlen+0xc>
    80001d08:	40e50533          	sub	a0,a0,a4
    80001d0c:	00008067          	ret
    80001d10:	00000513          	li	a0,0
    80001d14:	00008067          	ret

0000000080001d18 <strnlen>:
    80001d18:	00050713          	mv	a4,a0
    80001d1c:	02058663          	beqz	a1,80001d48 <strnlen+0x30>
    80001d20:	00054783          	lbu	a5,0(a0)
    80001d24:	02078263          	beqz	a5,80001d48 <strnlen+0x30>
    80001d28:	00b505b3          	add	a1,a0,a1
    80001d2c:	00c0006f          	j	80001d38 <strnlen+0x20>
    80001d30:	00054283          	lbu	t0,0(a0)
    80001d34:	00028663          	beqz	t0,80001d40 <strnlen+0x28>
    80001d38:	00150513          	addi	a0,a0,1
    80001d3c:	feb51ae3          	bne	a0,a1,80001d30 <strnlen+0x18>
    80001d40:	40e50533          	sub	a0,a0,a4
    80001d44:	00008067          	ret
    80001d48:	00000513          	li	a0,0
    80001d4c:	00008067          	ret

0000000080001d50 <strcmp>:
    80001d50:	00150513          	addi	a0,a0,1
    80001d54:	fff54783          	lbu	a5,-1(a0)
    80001d58:	00158593          	addi	a1,a1,1
    80001d5c:	fff5c703          	lbu	a4,-1(a1)
    80001d60:	00078a63          	beqz	a5,80001d74 <strcmp+0x24>
    80001d64:	fee786e3          	beq	a5,a4,80001d50 <strcmp>
    80001d68:	0007851b          	sext.w	a0,a5
    80001d6c:	40e5053b          	subw	a0,a0,a4
    80001d70:	00008067          	ret
    80001d74:	00000513          	li	a0,0
    80001d78:	ff5ff06f          	j	80001d6c <strcmp+0x1c>

0000000080001d7c <strcpy>:
    80001d7c:	00050793          	mv	a5,a0
    80001d80:	00158593          	addi	a1,a1,1
    80001d84:	fff5c703          	lbu	a4,-1(a1)
    80001d88:	00178793          	addi	a5,a5,1
    80001d8c:	fee78fa3          	sb	a4,-1(a5)
    80001d90:	fe0718e3          	bnez	a4,80001d80 <strcpy+0x4>
    80001d94:	00008067          	ret

0000000080001d98 <atol>:
    80001d98:	00054783          	lbu	a5,0(a0)
    80001d9c:	02000713          	li	a4,32
    80001da0:	00e79863          	bne	a5,a4,80001db0 <atol+0x18>
    80001da4:	00150513          	addi	a0,a0,1
    80001da8:	00054783          	lbu	a5,0(a0)
    80001dac:	fee78ce3          	beq	a5,a4,80001da4 <atol+0xc>
    80001db0:	fd57829b          	addiw	t0,a5,-43
    80001db4:	0fd2f313          	andi	t1,t0,253
    80001db8:	04030263          	beqz	t1,80001dfc <atol+0x64>
    80001dbc:	00054683          	lbu	a3,0(a0)
    80001dc0:	04068c63          	beqz	a3,80001e18 <atol+0x80>
    80001dc4:	00050813          	mv	a6,a0
    80001dc8:	00000613          	li	a2,0
    80001dcc:	00000513          	li	a0,0
    80001dd0:	00180813          	addi	a6,a6,1
    80001dd4:	fd06859b          	addiw	a1,a3,-48
    80001dd8:	00251893          	slli	a7,a0,0x2
    80001ddc:	00084683          	lbu	a3,0(a6)
    80001de0:	00a88533          	add	a0,a7,a0
    80001de4:	00151e13          	slli	t3,a0,0x1
    80001de8:	01c58533          	add	a0,a1,t3
    80001dec:	fe0692e3          	bnez	a3,80001dd0 <atol+0x38>
    80001df0:	00060463          	beqz	a2,80001df8 <atol+0x60>
    80001df4:	40a00533          	neg	a0,a0
    80001df8:	00008067          	ret
    80001dfc:	00154683          	lbu	a3,1(a0)
    80001e00:	fd378393          	addi	t2,a5,-45
    80001e04:	0013b613          	seqz	a2,t2
    80001e08:	00150813          	addi	a6,a0,1
    80001e0c:	fc0690e3          	bnez	a3,80001dcc <atol+0x34>
    80001e10:	00000513          	li	a0,0
    80001e14:	fddff06f          	j	80001df0 <atol+0x58>
    80001e18:	00000513          	li	a0,0
    80001e1c:	00008067          	ret
    80001e20:	0000                	unimp
	...

Disassembly of section .text.startup:

0000000080001e24 <main>:
    80001e24:	ff010113          	addi	sp,sp,-16
    80001e28:	00000517          	auipc	a0,0x0
    80001e2c:	0d050513          	addi	a0,a0,208 # 80001ef8 <main+0xd4>
    80001e30:	00113423          	sd	ra,8(sp)
    80001e34:	b55ff0ef          	jal	ra,80001988 <printstr>
    80001e38:	00813083          	ld	ra,8(sp)
    80001e3c:	fff00513          	li	a0,-1
    80001e40:	01010113          	addi	sp,sp,16
    80001e44:	00008067          	ret
	...
