
pmp.riscv:     file format elf64-littleriscv


Disassembly of section .text.init:

0000000080000000 <_start>:
    80000000:	00000093          	li	ra,0
    80000004:	00000113          	li	sp,0
    80000008:	00000193          	li	gp,0
    8000000c:	00000213          	li	tp,0
    80000010:	00000293          	li	t0,0
    80000014:	00000313          	li	t1,0
    80000018:	00000393          	li	t2,0
    8000001c:	00000413          	li	s0,0
    80000020:	00000493          	li	s1,0
    80000024:	00000513          	li	a0,0
    80000028:	00000593          	li	a1,0
    8000002c:	00000613          	li	a2,0
    80000030:	00000693          	li	a3,0
    80000034:	00000713          	li	a4,0
    80000038:	00000793          	li	a5,0
    8000003c:	00000813          	li	a6,0
    80000040:	00000893          	li	a7,0
    80000044:	00000913          	li	s2,0
    80000048:	00000993          	li	s3,0
    8000004c:	00000a13          	li	s4,0
    80000050:	00000a93          	li	s5,0
    80000054:	00000b13          	li	s6,0
    80000058:	00000b93          	li	s7,0
    8000005c:	00000c13          	li	s8,0
    80000060:	00000c93          	li	s9,0
    80000064:	00000d13          	li	s10,0
    80000068:	00000d93          	li	s11,0
    8000006c:	00000e13          	li	t3,0
    80000070:	00000e93          	li	t4,0
    80000074:	00000f13          	li	t5,0
    80000078:	00000f93          	li	t6,0
    8000007c:	0001e2b7          	lui	t0,0x1e
    80000080:	3002a073          	csrs	mstatus,t0
    80000084:	00100293          	li	t0,1
    80000088:	01f29293          	slli	t0,t0,0x1f
    8000008c:	0002da63          	bgez	t0,800000a0 <_start+0xa0>
    80000090:	00100513          	li	a0,1
    80000094:	00001297          	auipc	t0,0x1
    80000098:	f6a2a623          	sw	a0,-148(t0) # 80001000 <tohost>
    8000009c:	ff5ff06f          	j	80000090 <_start+0x90>
    800000a0:	00000297          	auipc	t0,0x0
    800000a4:	09028293          	addi	t0,t0,144 # 80000130 <_start+0x130>
    800000a8:	30529073          	csrw	mtvec,t0
    800000ac:	00301073          	fssr	zero
    800000b0:	f0000053          	fmv.s.x	ft0,zero
    800000b4:	f00000d3          	fmv.s.x	ft1,zero
    800000b8:	f0000153          	fmv.s.x	ft2,zero
    800000bc:	f00001d3          	fmv.s.x	ft3,zero
    800000c0:	f0000253          	fmv.s.x	ft4,zero
    800000c4:	f00002d3          	fmv.s.x	ft5,zero
    800000c8:	f0000353          	fmv.s.x	ft6,zero
    800000cc:	f00003d3          	fmv.s.x	ft7,zero
    800000d0:	f0000453          	fmv.s.x	fs0,zero
    800000d4:	f00004d3          	fmv.s.x	fs1,zero
    800000d8:	f0000553          	fmv.s.x	fa0,zero
    800000dc:	f00005d3          	fmv.s.x	fa1,zero
    800000e0:	f0000653          	fmv.s.x	fa2,zero
    800000e4:	f00006d3          	fmv.s.x	fa3,zero
    800000e8:	f0000753          	fmv.s.x	fa4,zero
    800000ec:	f00007d3          	fmv.s.x	fa5,zero
    800000f0:	f0000853          	fmv.s.x	fa6,zero
    800000f4:	f00008d3          	fmv.s.x	fa7,zero
    800000f8:	f0000953          	fmv.s.x	fs2,zero
    800000fc:	f00009d3          	fmv.s.x	fs3,zero
    80000100:	f0000a53          	fmv.s.x	fs4,zero
    80000104:	f0000ad3          	fmv.s.x	fs5,zero
    80000108:	f0000b53          	fmv.s.x	fs6,zero
    8000010c:	f0000bd3          	fmv.s.x	fs7,zero
    80000110:	f0000c53          	fmv.s.x	fs8,zero
    80000114:	f0000cd3          	fmv.s.x	fs9,zero
    80000118:	f0000d53          	fmv.s.x	fs10,zero
    8000011c:	f0000dd3          	fmv.s.x	fs11,zero
    80000120:	f0000e53          	fmv.s.x	ft8,zero
    80000124:	f0000ed3          	fmv.s.x	ft9,zero
    80000128:	f0000f53          	fmv.s.x	ft10,zero
    8000012c:	f0000fd3          	fmv.s.x	ft11,zero
    80000130:	00000297          	auipc	t0,0x0
    80000134:	04428293          	addi	t0,t0,68 # 80000174 <trap_entry>
    80000138:	30529073          	csrw	mtvec,t0
    8000013c:	00003197          	auipc	gp,0x3
    80000140:	88418193          	addi	gp,gp,-1916 # 800029c0 <__global_pointer$>
    80000144:	00007217          	auipc	tp,0x7
    80000148:	f3b20213          	addi	tp,tp,-197 # 8000707f <_end+0x3f>
    8000014c:	fc027213          	andi	tp,tp,-64
    80000150:	f1402573          	csrr	a0,mhartid
    80000154:	00100593          	li	a1,1
    80000158:	00b57063          	bleu	a1,a0,80000158 <_start+0x158>
    8000015c:	01151613          	slli	a2,a0,0x11
    80000160:	00c20233          	add	tp,tp,a2
    80000164:	00150113          	addi	sp,a0,1
    80000168:	01111113          	slli	sp,sp,0x11
    8000016c:	00410133          	add	sp,sp,tp
    80000170:	3650106f          	j	80001cd4 <_init>

0000000080000174 <trap_entry>:
    80000174:	ef010113          	addi	sp,sp,-272
    80000178:	00113423          	sd	ra,8(sp)
    8000017c:	00213823          	sd	sp,16(sp)
    80000180:	00313c23          	sd	gp,24(sp)
    80000184:	02413023          	sd	tp,32(sp)
    80000188:	02513423          	sd	t0,40(sp)
    8000018c:	02613823          	sd	t1,48(sp)
    80000190:	02713c23          	sd	t2,56(sp)
    80000194:	04813023          	sd	s0,64(sp)
    80000198:	04913423          	sd	s1,72(sp)
    8000019c:	04a13823          	sd	a0,80(sp)
    800001a0:	04b13c23          	sd	a1,88(sp)
    800001a4:	06c13023          	sd	a2,96(sp)
    800001a8:	06d13423          	sd	a3,104(sp)
    800001ac:	06e13823          	sd	a4,112(sp)
    800001b0:	06f13c23          	sd	a5,120(sp)
    800001b4:	09013023          	sd	a6,128(sp)
    800001b8:	09113423          	sd	a7,136(sp)
    800001bc:	09213823          	sd	s2,144(sp)
    800001c0:	09313c23          	sd	s3,152(sp)
    800001c4:	0b413023          	sd	s4,160(sp)
    800001c8:	0b513423          	sd	s5,168(sp)
    800001cc:	0b613823          	sd	s6,176(sp)
    800001d0:	0b713c23          	sd	s7,184(sp)
    800001d4:	0d813023          	sd	s8,192(sp)
    800001d8:	0d913423          	sd	s9,200(sp)
    800001dc:	0da13823          	sd	s10,208(sp)
    800001e0:	0db13c23          	sd	s11,216(sp)
    800001e4:	0fc13023          	sd	t3,224(sp)
    800001e8:	0fd13423          	sd	t4,232(sp)
    800001ec:	0fe13823          	sd	t5,240(sp)
    800001f0:	0ff13c23          	sd	t6,248(sp)
    800001f4:	34202573          	csrr	a0,mcause
    800001f8:	341025f3          	csrr	a1,mepc
    800001fc:	00010613          	mv	a2,sp
    80000200:	264010ef          	jal	ra,80001464 <handle_trap>
    80000204:	34151073          	csrw	mepc,a0
    80000208:	000022b7          	lui	t0,0x2
    8000020c:	8002829b          	addiw	t0,t0,-2048
    80000210:	3002a073          	csrs	mstatus,t0
    80000214:	00813083          	ld	ra,8(sp)
    80000218:	01013103          	ld	sp,16(sp)
    8000021c:	01813183          	ld	gp,24(sp)
    80000220:	02013203          	ld	tp,32(sp)
    80000224:	02813283          	ld	t0,40(sp)
    80000228:	03013303          	ld	t1,48(sp)
    8000022c:	03813383          	ld	t2,56(sp)
    80000230:	04013403          	ld	s0,64(sp)
    80000234:	04813483          	ld	s1,72(sp)
    80000238:	05013503          	ld	a0,80(sp)
    8000023c:	05813583          	ld	a1,88(sp)
    80000240:	06013603          	ld	a2,96(sp)
    80000244:	06813683          	ld	a3,104(sp)
    80000248:	07013703          	ld	a4,112(sp)
    8000024c:	07813783          	ld	a5,120(sp)
    80000250:	08013803          	ld	a6,128(sp)
    80000254:	08813883          	ld	a7,136(sp)
    80000258:	09013903          	ld	s2,144(sp)
    8000025c:	09813983          	ld	s3,152(sp)
    80000260:	0a013a03          	ld	s4,160(sp)
    80000264:	0a813a83          	ld	s5,168(sp)
    80000268:	0b013b03          	ld	s6,176(sp)
    8000026c:	0b813b83          	ld	s7,184(sp)
    80000270:	0c013c03          	ld	s8,192(sp)
    80000274:	0c813c83          	ld	s9,200(sp)
    80000278:	0d013d03          	ld	s10,208(sp)
    8000027c:	0d813d83          	ld	s11,216(sp)
    80000280:	0e013e03          	ld	t3,224(sp)
    80000284:	0e813e83          	ld	t4,232(sp)
    80000288:	0f013f03          	ld	t5,240(sp)
    8000028c:	0f813f83          	ld	t6,248(sp)
    80000290:	11010113          	addi	sp,sp,272
    80000294:	30200073          	mret
	...

Disassembly of section .tohost:

0000000080001000 <tohost>:
	...

0000000080001040 <fromhost>:
	...

Disassembly of section .text:

0000000080001048 <test_range>:
    80001048:	fc010113          	addi	sp,sp,-64
    8000104c:	03213023          	sd	s2,32(sp)
    80001050:	fffff937          	lui	s2,0xfffff
    80001054:	02113c23          	sd	ra,56(sp)
    80001058:	02813823          	sd	s0,48(sp)
    8000105c:	02913423          	sd	s1,40(sp)
    80001060:	01313c23          	sd	s3,24(sp)
    80001064:	01413823          	sd	s4,16(sp)
    80001068:	01513423          	sd	s5,8(sp)
    8000106c:	01613023          	sd	s6,0(sp)
    80001070:	01250933          	add	s2,a0,s2
    80001074:	00001737          	lui	a4,0x1
    80001078:	36e97063          	bleu	a4,s2,800013d8 <test_range+0x390>
    8000107c:	00004417          	auipc	s0,0x4
    80001080:	f8440413          	addi	s0,s0,-124 # 80005000 <l1pt>
    80001084:	00a40433          	add	s0,s0,a0
    80001088:	00858eb3          	add	t4,a1,s0
    8000108c:	00245813          	srli	a6,s0,0x2
    80001090:	002ed093          	srli	ra,t4,0x2
    80001094:	3a0027f3          	csrr	a5,pmpcfg0
    80001098:	ffff06b7          	lui	a3,0xffff0
    8000109c:	0ff68293          	addi	t0,a3,255 # ffffffffffff00ff <_end+0xffffffff7ffe90bf>
    800010a0:	0057f333          	and	t1,a5,t0
    800010a4:	3a031073          	csrw	pmpcfg0,t1
    800010a8:	3b081073          	csrw	pmpaddr0,a6
    800010ac:	3b109073          	csrw	pmpaddr1,ra
    800010b0:	90070393          	addi	t2,a4,-1792 # 900 <_tbss_end+0x8bc>
    800010b4:	007364b3          	or	s1,t1,t2
    800010b8:	3a049073          	csrw	pmpcfg0,s1
    800010bc:	12000073          	sfence.vma
    800010c0:	00b504b3          	add	s1,a0,a1
    800010c4:	0c957663          	bleu	s1,a0,80001190 <test_range+0x148>
    800010c8:	fffdefb7          	lui	t6,0xfffde
    800010cc:	00021f37          	lui	t5,0x21
    800010d0:	00281813          	slli	a6,a6,0x2
    800010d4:	00209e93          	slli	t4,ra,0x2
    800010d8:	00090893          	mv	a7,s2
    800010dc:	00040613          	mv	a2,s0
    800010e0:	00050693          	mv	a3,a0
    800010e4:	00800e13          	li	t3,8
    800010e8:	000012b7          	lui	t0,0x1
    800010ec:	00001397          	auipc	t2,0x1
    800010f0:	0d438393          	addi	t2,t2,212 # 800021c0 <trap_expected>
    800010f4:	7fff8f93          	addi	t6,t6,2047 # fffffffffffde7ff <_end+0xffffffff7ffd77bf>
    800010f8:	800f0f13          	addi	t5,t5,-2048 # 20800 <_tbss_end+0x207bc>
    800010fc:	00200313          	li	t1,2
    80001100:	00400993          	li	s3,4
    80001104:	00100a13          	li	s4,1
    80001108:	00100793          	li	a5,1
    8000110c:	fff78a93          	addi	s5,a5,-1
    80001110:	00daf733          	and	a4,s5,a3
    80001114:	0a071a63          	bnez	a4,800011c8 <test_range+0x180>
    80001118:	2c58f063          	bleu	t0,a7,800013d8 <test_range+0x390>
    8000111c:	00000b13          	li	s6,0
    80001120:	00e600b3          	add	ra,a2,a4
    80001124:	0100e663          	bltu	ra,a6,80001130 <test_range+0xe8>
    80001128:	01d0f463          	bleu	t4,ra,80001130 <test_range+0xe8>
    8000112c:	004b0b13          	addi	s6,s6,4
    80001130:	00470713          	addi	a4,a4,4
    80001134:	fef766e3          	bltu	a4,a5,80001120 <test_range+0xd8>
    80001138:	00000093          	li	ra,0
    8000113c:	000b0463          	beqz	s6,80001144 <test_range+0xfc>
    80001140:	00fb30b3          	sltu	ra,s6,a5
    80001144:	00001a97          	auipc	s5,0x1
    80001148:	061aae23          	sw	ra,124(s5) # 800021c0 <trap_expected>
    8000114c:	30002af3          	csrr	s5,mstatus
    80001150:	01fafb33          	and	s6,s5,t6
    80001154:	01eb6733          	or	a4,s6,t5
    80001158:	0a678063          	beq	a5,t1,800011f8 <test_range+0x1b0>
    8000115c:	06f37c63          	bleu	a5,t1,800011d4 <test_range+0x18c>
    80001160:	0b378463          	beq	a5,s3,80001208 <test_range+0x1c0>
    80001164:	29c79263          	bne	a5,t3,800013e8 <exhaustive_test.constprop.0>
    80001168:	30071773          	csrrw	a4,mstatus,a4
    8000116c:	0006b003          	ld	zero,0(a3)
    80001170:	30071073          	csrw	mstatus,a4
    80001174:	0003a783          	lw	a5,0(t2)
    80001178:	0007809b          	sext.w	ra,a5
    8000117c:	26009263          	bnez	ra,800013e0 <test_range+0x398>
    80001180:	00468693          	addi	a3,a3,4
    80001184:	00460613          	addi	a2,a2,4
    80001188:	00488893          	addi	a7,a7,4
    8000118c:	f696eee3          	bltu	a3,s1,80001108 <test_range+0xc0>
    80001190:	fff58093          	addi	ra,a1,-1
    80001194:	00b56733          	or	a4,a0,a1
    80001198:	00e0fab3          	and	s5,ra,a4
    8000119c:	060a8e63          	beqz	s5,80001218 <test_range+0x1d0>
    800011a0:	03813083          	ld	ra,56(sp)
    800011a4:	03013403          	ld	s0,48(sp)
    800011a8:	02813483          	ld	s1,40(sp)
    800011ac:	02013903          	ld	s2,32(sp)
    800011b0:	01813983          	ld	s3,24(sp)
    800011b4:	01013a03          	ld	s4,16(sp)
    800011b8:	00813a83          	ld	s5,8(sp)
    800011bc:	00013b03          	ld	s6,0(sp)
    800011c0:	04010113          	addi	sp,sp,64
    800011c4:	00008067          	ret
    800011c8:	00179793          	slli	a5,a5,0x1
    800011cc:	f4fe70e3          	bleu	a5,t3,8000110c <test_range+0xc4>
    800011d0:	fb1ff06f          	j	80001180 <test_range+0x138>
    800011d4:	21479a63          	bne	a5,s4,800013e8 <exhaustive_test.constprop.0>
    800011d8:	30071773          	csrrw	a4,mstatus,a4
    800011dc:	00068003          	lb	zero,0(a3)
    800011e0:	30071073          	csrw	mstatus,a4
    800011e4:	0003aa83          	lw	s5,0(t2)
    800011e8:	000a8b1b          	sext.w	s6,s5
    800011ec:	1e0b1a63          	bnez	s6,800013e0 <test_range+0x398>
    800011f0:	00179793          	slli	a5,a5,0x1
    800011f4:	f19ff06f          	j	8000110c <test_range+0xc4>
    800011f8:	30071773          	csrrw	a4,mstatus,a4
    800011fc:	00069003          	lh	zero,0(a3)
    80001200:	30071073          	csrw	mstatus,a4
    80001204:	fe1ff06f          	j	800011e4 <test_range+0x19c>
    80001208:	30071773          	csrrw	a4,mstatus,a4
    8000120c:	0006a003          	lw	zero,0(a3)
    80001210:	30071073          	csrw	mstatus,a4
    80001214:	fd1ff06f          	j	800011e4 <test_range+0x19c>
    80001218:	00400b13          	li	s6,4
    8000121c:	12bb6463          	bltu	s6,a1,80001344 <test_range+0x2fc>
    80001220:	000012b7          	lui	t0,0x1
    80001224:	10028393          	addi	t2,t0,256 # 1100 <_tbss_end+0x10bc>
    80001228:	01100313          	li	t1,17
    8000122c:	0015d593          	srli	a1,a1,0x1
    80001230:	fff58693          	addi	a3,a1,-1
    80001234:	00868833          	add	a6,a3,s0
    80001238:	00285813          	srli	a6,a6,0x2
    8000123c:	3a0028f3          	csrr	a7,pmpcfg0
    80001240:	ffff09b7          	lui	s3,0xffff0
    80001244:	0ff98a13          	addi	s4,s3,255 # ffffffffffff00ff <_end+0xffffffff7ffe90bf>
    80001248:	0148fe33          	and	t3,a7,s4
    8000124c:	3a0e1073          	csrw	pmpcfg0,t3
    80001250:	3b005073          	csrwi	pmpaddr0,0
    80001254:	3b181073          	csrw	pmpaddr1,a6
    80001258:	007e6eb3          	or	t4,t3,t2
    8000125c:	3a0e9073          	csrw	pmpcfg0,t4
    80001260:	12000073          	sfence.vma
    80001264:	f2957ee3          	bleu	s1,a0,800011a0 <test_range+0x158>
    80001268:	fffde7b7          	lui	a5,0xfffde
    8000126c:	000210b7          	lui	ra,0x21
    80001270:	00800893          	li	a7,8
    80001274:	01837313          	andi	t1,t1,24
    80001278:	01800f93          	li	t6,24
    8000127c:	00001f37          	lui	t5,0x1
    80001280:	00001297          	auipc	t0,0x1
    80001284:	f4028293          	addi	t0,t0,-192 # 800021c0 <trap_expected>
    80001288:	7ff78e93          	addi	t4,a5,2047 # fffffffffffde7ff <_end+0xffffffff7ffd77bf>
    8000128c:	80008e13          	addi	t3,ra,-2048 # 20800 <_tbss_end+0x207bc>
    80001290:	00200593          	li	a1,2
    80001294:	00400393          	li	t2,4
    80001298:	00100993          	li	s3,1
    8000129c:	00100713          	li	a4,1
    800012a0:	fff70a93          	addi	s5,a4,-1
    800012a4:	00aafb33          	and	s6,s5,a0
    800012a8:	0a0b1663          	bnez	s6,80001354 <test_range+0x30c>
    800012ac:	00080793          	mv	a5,a6
    800012b0:	00100693          	li	a3,1
    800012b4:	0ff30863          	beq	t1,t6,800013a4 <test_range+0x35c>
    800012b8:	00f68b33          	add	s6,a3,a5
    800012bc:	00279093          	slli	ra,a5,0x2
    800012c0:	002b1793          	slli	a5,s6,0x2
    800012c4:	11e97a63          	bleu	t5,s2,800013d8 <test_range+0x390>
    800012c8:	00000a93          	li	s5,0
    800012cc:	00000693          	li	a3,0
    800012d0:	00d40a33          	add	s4,s0,a3
    800012d4:	001a6663          	bltu	s4,ra,800012e0 <test_range+0x298>
    800012d8:	00fa7463          	bleu	a5,s4,800012e0 <test_range+0x298>
    800012dc:	004a8a93          	addi	s5,s5,4
    800012e0:	00468693          	addi	a3,a3,4
    800012e4:	fee6e6e3          	bltu	a3,a4,800012d0 <test_range+0x288>
    800012e8:	00000613          	li	a2,0
    800012ec:	000a8463          	beqz	s5,800012f4 <test_range+0x2ac>
    800012f0:	00eab633          	sltu	a2,s5,a4
    800012f4:	00001697          	auipc	a3,0x1
    800012f8:	ecc6a623          	sw	a2,-308(a3) # 800021c0 <trap_expected>
    800012fc:	30002b73          	csrr	s6,mstatus
    80001300:	01db70b3          	and	ra,s6,t4
    80001304:	01c0e7b3          	or	a5,ra,t3
    80001308:	08b70663          	beq	a4,a1,80001394 <test_range+0x34c>
    8000130c:	06e5fa63          	bleu	a4,a1,80001380 <test_range+0x338>
    80001310:	04770863          	beq	a4,t2,80001360 <test_range+0x318>
    80001314:	0d171a63          	bne	a4,a7,800013e8 <exhaustive_test.constprop.0>
    80001318:	300797f3          	csrrw	a5,mstatus,a5
    8000131c:	00053003          	ld	zero,0(a0)
    80001320:	30079073          	csrw	mstatus,a5
    80001324:	0002a703          	lw	a4,0(t0)
    80001328:	00070a1b          	sext.w	s4,a4
    8000132c:	0a0a1a63          	bnez	s4,800013e0 <test_range+0x398>
    80001330:	00450513          	addi	a0,a0,4
    80001334:	00440413          	addi	s0,s0,4
    80001338:	00490913          	addi	s2,s2,4 # fffffffffffff004 <_end+0xffffffff7fff7fc4>
    8000133c:	f69560e3          	bltu	a0,s1,8000129c <test_range+0x254>
    80001340:	e61ff06f          	j	800011a0 <test_range+0x158>
    80001344:	00002637          	lui	a2,0x2
    80001348:	90060393          	addi	t2,a2,-1792 # 1900 <_tbss_end+0x18bc>
    8000134c:	01900313          	li	t1,25
    80001350:	eddff06f          	j	8000122c <test_range+0x1e4>
    80001354:	00171713          	slli	a4,a4,0x1
    80001358:	f4e8f4e3          	bleu	a4,a7,800012a0 <test_range+0x258>
    8000135c:	fd5ff06f          	j	80001330 <test_range+0x2e8>
    80001360:	300797f3          	csrrw	a5,mstatus,a5
    80001364:	00052003          	lw	zero,0(a0)
    80001368:	30079073          	csrw	mstatus,a5
    8000136c:	0002aa83          	lw	s5,0(t0)
    80001370:	000a869b          	sext.w	a3,s5
    80001374:	06069663          	bnez	a3,800013e0 <test_range+0x398>
    80001378:	00171713          	slli	a4,a4,0x1
    8000137c:	f25ff06f          	j	800012a0 <test_range+0x258>
    80001380:	07371463          	bne	a4,s3,800013e8 <exhaustive_test.constprop.0>
    80001384:	300797f3          	csrrw	a5,mstatus,a5
    80001388:	00050003          	lb	zero,0(a0)
    8000138c:	30079073          	csrw	mstatus,a5
    80001390:	fddff06f          	j	8000136c <test_range+0x324>
    80001394:	300797f3          	csrrw	a5,mstatus,a5
    80001398:	00051003          	lh	zero,0(a0)
    8000139c:	30079073          	csrw	mstatus,a5
    800013a0:	fcdff06f          	j	8000136c <test_range+0x324>
    800013a4:	04000a13          	li	s4,64
    800013a8:	00200693          	li	a3,2
    800013ac:	00100613          	li	a2,1
    800013b0:	01c0006f          	j	800013cc <test_range+0x384>
    800013b4:	fff64a93          	not	s5,a2
    800013b8:	fffa0a1b          	addiw	s4,s4,-1
    800013bc:	0157f7b3          	and	a5,a5,s5
    800013c0:	00169693          	slli	a3,a3,0x1
    800013c4:	00161613          	slli	a2,a2,0x1
    800013c8:	ee0a08e3          	beqz	s4,800012b8 <test_range+0x270>
    800013cc:	00f670b3          	and	ra,a2,a5
    800013d0:	fe0092e3          	bnez	ra,800013b4 <test_range+0x36c>
    800013d4:	ee5ff06f          	j	800012b8 <test_range+0x270>
    800013d8:	00300513          	li	a0,3
    800013dc:	678000ef          	jal	ra,80001a54 <exit>
    800013e0:	00200513          	li	a0,2
    800013e4:	670000ef          	jal	ra,80001a54 <exit>

00000000800013e8 <exhaustive_test.constprop.0>:
    800013e8:	fd010113          	addi	sp,sp,-48
    800013ec:	01313423          	sd	s3,8(sp)
    800013f0:	02113423          	sd	ra,40(sp)
    800013f4:	02813023          	sd	s0,32(sp)
    800013f8:	00913c23          	sd	s1,24(sp)
    800013fc:	01213823          	sd	s2,16(sp)
    80001400:	01413023          	sd	s4,0(sp)
    80001404:	02050993          	addi	s3,a0,32
    80001408:	03357e63          	bleu	s3,a0,80001444 <exhaustive_test.constprop.0+0x5c>
    8000140c:	00050493          	mv	s1,a0
    80001410:	02000913          	li	s2,32
    80001414:	00300a13          	li	s4,3
    80001418:	032a7063          	bleu	s2,s4,80001438 <exhaustive_test.constprop.0+0x50>
    8000141c:	00400413          	li	s0,4
    80001420:	00040593          	mv	a1,s0
    80001424:	00048513          	mv	a0,s1
    80001428:	00440413          	addi	s0,s0,4
    8000142c:	00000097          	auipc	ra,0x0
    80001430:	c1c080e7          	jalr	-996(ra) # 80001048 <test_range>
    80001434:	fe8976e3          	bleu	s0,s2,80001420 <exhaustive_test.constprop.0+0x38>
    80001438:	00448493          	addi	s1,s1,4
    8000143c:	ffc90913          	addi	s2,s2,-4
    80001440:	fd34ece3          	bltu	s1,s3,80001418 <exhaustive_test.constprop.0+0x30>
    80001444:	02813083          	ld	ra,40(sp)
    80001448:	02013403          	ld	s0,32(sp)
    8000144c:	01813483          	ld	s1,24(sp)
    80001450:	01013903          	ld	s2,16(sp)
    80001454:	00813983          	ld	s3,8(sp)
    80001458:	00013a03          	ld	s4,0(sp)
    8000145c:	03010113          	addi	sp,sp,48
    80001460:	00008067          	ret

0000000080001464 <handle_trap>:
    80001464:	ff010113          	addi	sp,sp,-16
    80001468:	00113423          	sd	ra,8(sp)
    8000146c:	00200793          	li	a5,2
    80001470:	04f50663          	beq	a0,a5,800014bc <handle_trap+0x58>
    80001474:	00001097          	auipc	ra,0x1
    80001478:	d4c08093          	addi	ra,ra,-692 # 800021c0 <trap_expected>
    8000147c:	0000a283          	lw	t0,0(ra)
    80001480:	0002831b          	sext.w	t1,t0
    80001484:	04030063          	beqz	t1,800014c4 <handle_trap+0x60>
    80001488:	00500393          	li	t2,5
    8000148c:	02751c63          	bne	a0,t2,800014c4 <handle_trap+0x60>
    80001490:	0005d603          	lhu	a2,0(a1)
    80001494:	00001717          	auipc	a4,0x1
    80001498:	d2072623          	sw	zero,-724(a4) # 800021c0 <trap_expected>
    8000149c:	00400513          	li	a0,4
    800014a0:	00367693          	andi	a3,a2,3
    800014a4:	00069463          	bnez	a3,800014ac <handle_trap+0x48>
    800014a8:	00200513          	li	a0,2
    800014ac:	00813083          	ld	ra,8(sp)
    800014b0:	00a58533          	add	a0,a1,a0
    800014b4:	01010113          	addi	sp,sp,16
    800014b8:	00008067          	ret
    800014bc:	00000513          	li	a0,0
    800014c0:	594000ef          	jal	ra,80001a54 <exit>
    800014c4:	00100513          	li	a0,1
    800014c8:	58c000ef          	jal	ra,80001a54 <exit>
    800014cc:	0000                	unimp
	...

00000000800014d0 <vprintfmt>:
    800014d0:	ea010113          	addi	sp,sp,-352
    800014d4:	14813823          	sd	s0,336(sp)
    800014d8:	14913423          	sd	s1,328(sp)
    800014dc:	15213023          	sd	s2,320(sp)
    800014e0:	13413823          	sd	s4,304(sp)
    800014e4:	13513423          	sd	s5,296(sp)
    800014e8:	13613023          	sd	s6,288(sp)
    800014ec:	14113c23          	sd	ra,344(sp)
    800014f0:	13313c23          	sd	s3,312(sp)
    800014f4:	11713c23          	sd	s7,280(sp)
    800014f8:	11813823          	sd	s8,272(sp)
    800014fc:	11913423          	sd	s9,264(sp)
    80001500:	00050913          	mv	s2,a0
    80001504:	00058493          	mv	s1,a1
    80001508:	00060413          	mv	s0,a2
    8000150c:	00068b13          	mv	s6,a3
    80001510:	02500a13          	li	s4,37
    80001514:	00001a97          	auipc	s5,0x1
    80001518:	b0ca8a93          	addi	s5,s5,-1268 # 80002020 <main+0x10c>
    8000151c:	0140006f          	j	80001530 <vprintfmt+0x60>
    80001520:	06050063          	beqz	a0,80001580 <vprintfmt+0xb0>
    80001524:	00048593          	mv	a1,s1
    80001528:	00140413          	addi	s0,s0,1
    8000152c:	000900e7          	jalr	s2
    80001530:	00044503          	lbu	a0,0(s0)
    80001534:	ff4516e3          	bne	a0,s4,80001520 <vprintfmt+0x50>
    80001538:	00144683          	lbu	a3,1(s0)
    8000153c:	00140c93          	addi	s9,s0,1
    80001540:	000c8713          	mv	a4,s9
    80001544:	02000c13          	li	s8,32
    80001548:	fff00993          	li	s3,-1
    8000154c:	fff00b93          	li	s7,-1
    80001550:	00000593          	li	a1,0
    80001554:	05500613          	li	a2,85
    80001558:	00900513          	li	a0,9
    8000155c:	fdd6879b          	addiw	a5,a3,-35
    80001560:	0ff7f093          	andi	ra,a5,255
    80001564:	00170413          	addi	s0,a4,1
    80001568:	2a166863          	bltu	a2,ra,80001818 <vprintfmt+0x348>
    8000156c:	00209293          	slli	t0,ra,0x2
    80001570:	01528333          	add	t1,t0,s5
    80001574:	00032383          	lw	t2,0(t1)
    80001578:	01538833          	add	a6,t2,s5
    8000157c:	00080067          	jr	a6
    80001580:	15813083          	ld	ra,344(sp)
    80001584:	15013403          	ld	s0,336(sp)
    80001588:	14813483          	ld	s1,328(sp)
    8000158c:	14013903          	ld	s2,320(sp)
    80001590:	13813983          	ld	s3,312(sp)
    80001594:	13013a03          	ld	s4,304(sp)
    80001598:	12813a83          	ld	s5,296(sp)
    8000159c:	12013b03          	ld	s6,288(sp)
    800015a0:	11813b83          	ld	s7,280(sp)
    800015a4:	11013c03          	ld	s8,272(sp)
    800015a8:	10813c83          	ld	s9,264(sp)
    800015ac:	16010113          	addi	sp,sp,352
    800015b0:	00008067          	ret
    800015b4:	00800f93          	li	t6,8
    800015b8:	00100793          	li	a5,1
    800015bc:	008b0293          	addi	t0,s6,8
    800015c0:	12b7d863          	ble	a1,a5,800016f0 <vprintfmt+0x220>
    800015c4:	000b3303          	ld	t1,0(s6)
    800015c8:	00028b13          	mv	s6,t0
    800015cc:	03f37eb3          	remu	t4,t1,t6
    800015d0:	000c0c1b          	sext.w	s8,s8
    800015d4:	01d12023          	sw	t4,0(sp)
    800015d8:	25f36a63          	bltu	t1,t6,8000182c <vprintfmt+0x35c>
    800015dc:	00410393          	addi	t2,sp,4
    800015e0:	00100993          	li	s3,1
    800015e4:	0080006f          	j	800015ec <vprintfmt+0x11c>
    800015e8:	000c8993          	mv	s3,s9
    800015ec:	03f35333          	divu	t1,t1,t6
    800015f0:	00438393          	addi	t2,t2,4
    800015f4:	00198c9b          	addiw	s9,s3,1
    800015f8:	03f37833          	remu	a6,t1,t6
    800015fc:	ff03ae23          	sw	a6,-4(t2)
    80001600:	fff374e3          	bleu	t6,t1,800015e8 <vprintfmt+0x118>
    80001604:	017cde63          	ble	s7,s9,80001620 <vprintfmt+0x150>
    80001608:	000b8b9b          	sext.w	s7,s7
    8000160c:	fffb8b9b          	addiw	s7,s7,-1
    80001610:	00048593          	mv	a1,s1
    80001614:	000c0513          	mv	a0,s8
    80001618:	000900e7          	jalr	s2
    8000161c:	ff7cc8e3          	blt	s9,s7,8000160c <vprintfmt+0x13c>
    80001620:	00299613          	slli	a2,s3,0x2
    80001624:	10010893          	addi	a7,sp,256
    80001628:	00c88e33          	add	t3,a7,a2
    8000162c:	f00e2e83          	lw	t4,-256(t3)
    80001630:	fff98f1b          	addiw	t5,s3,-1
    80001634:	002f1f93          	slli	t6,t5,0x2
    80001638:	01f10c33          	add	s8,sp,t6
    8000163c:	00900c93          	li	s9,9
    80001640:	0100006f          	j	80001650 <vprintfmt+0x180>
    80001644:	000c2e83          	lw	t4,0(s8)
    80001648:	fff98993          	addi	s3,s3,-1
    8000164c:	ffcc0c13          	addi	s8,s8,-4
    80001650:	03000793          	li	a5,48
    80001654:	01dcf463          	bleu	t4,s9,8000165c <vprintfmt+0x18c>
    80001658:	05700793          	li	a5,87
    8000165c:	00048593          	mv	a1,s1
    80001660:	01d7853b          	addw	a0,a5,t4
    80001664:	000900e7          	jalr	s2
    80001668:	0009829b          	sext.w	t0,s3
    8000166c:	fc504ce3          	bgtz	t0,80001644 <vprintfmt+0x174>
    80001670:	ec1ff06f          	j	80001530 <vprintfmt+0x60>
    80001674:	03000513          	li	a0,48
    80001678:	00048593          	mv	a1,s1
    8000167c:	000900e7          	jalr	s2
    80001680:	00048593          	mv	a1,s1
    80001684:	07800513          	li	a0,120
    80001688:	000900e7          	jalr	s2
    8000168c:	008b0293          	addi	t0,s6,8
    80001690:	01000f93          	li	t6,16
    80001694:	f31ff06f          	j	800015c4 <vprintfmt+0xf4>
    80001698:	000b3c83          	ld	s9,0(s6)
    8000169c:	008b0b13          	addi	s6,s6,8
    800016a0:	200c8c63          	beqz	s9,800018b8 <vprintfmt+0x3e8>
    800016a4:	1b705463          	blez	s7,8000184c <vprintfmt+0x37c>
    800016a8:	02d00513          	li	a0,45
    800016ac:	1eac0e63          	beq	s8,a0,800018a8 <vprintfmt+0x3d8>
    800016b0:	000b8e1b          	sext.w	t3,s7
    800016b4:	20098e63          	beqz	s3,800018d0 <vprintfmt+0x400>
    800016b8:	000cc603          	lbu	a2,0(s9)
    800016bc:	20060a63          	beqz	a2,800018d0 <vprintfmt+0x400>
    800016c0:	001c8f13          	addi	t5,s9,1
    800016c4:	013c8eb3          	add	t4,s9,s3
    800016c8:	25ee8463          	beq	t4,t5,80001910 <vprintfmt+0x440>
    800016cc:	001f0713          	addi	a4,t5,1 # 1001 <_tbss_end+0xfbd>
    800016d0:	fff74683          	lbu	a3,-1(a4)
    800016d4:	16068663          	beqz	a3,80001840 <vprintfmt+0x370>
    800016d8:	00070f13          	mv	t5,a4
    800016dc:	fedff06f          	j	800016c8 <vprintfmt+0x1f8>
    800016e0:	00100793          	li	a5,1
    800016e4:	00a00f93          	li	t6,10
    800016e8:	008b0293          	addi	t0,s6,8
    800016ec:	ecb7cce3          	blt	a5,a1,800015c4 <vprintfmt+0xf4>
    800016f0:	ec059ae3          	bnez	a1,800015c4 <vprintfmt+0xf4>
    800016f4:	000b6303          	lwu	t1,0(s6)
    800016f8:	00028b13          	mv	s6,t0
    800016fc:	ed1ff06f          	j	800015cc <vprintfmt+0xfc>
    80001700:	00174683          	lbu	a3,1(a4)
    80001704:	00040713          	mv	a4,s0
    80001708:	e55ff06f          	j	8000155c <vprintfmt+0x8c>
    8000170c:	00048593          	mv	a1,s1
    80001710:	02500513          	li	a0,37
    80001714:	000900e7          	jalr	s2
    80001718:	e19ff06f          	j	80001530 <vprintfmt+0x60>
    8000171c:	01000f93          	li	t6,16
    80001720:	e99ff06f          	j	800015b8 <vprintfmt+0xe8>
    80001724:	000b2983          	lw	s3,0(s6)
    80001728:	00174683          	lbu	a3,1(a4)
    8000172c:	008b0b13          	addi	s6,s6,8
    80001730:	00040713          	mv	a4,s0
    80001734:	e20bd4e3          	bgez	s7,8000155c <vprintfmt+0x8c>
    80001738:	00098b93          	mv	s7,s3
    8000173c:	fff00993          	li	s3,-1
    80001740:	e1dff06f          	j	8000155c <vprintfmt+0x8c>
    80001744:	00174683          	lbu	a3,1(a4)
    80001748:	02d00c13          	li	s8,45
    8000174c:	00040713          	mv	a4,s0
    80001750:	e0dff06f          	j	8000155c <vprintfmt+0x8c>
    80001754:	000b8e93          	mv	t4,s7
    80001758:	000bd463          	bgez	s7,80001760 <vprintfmt+0x290>
    8000175c:	00000e93          	li	t4,0
    80001760:	00174683          	lbu	a3,1(a4)
    80001764:	000e8b9b          	sext.w	s7,t4
    80001768:	00040713          	mv	a4,s0
    8000176c:	df1ff06f          	j	8000155c <vprintfmt+0x8c>
    80001770:	00174683          	lbu	a3,1(a4)
    80001774:	03000c13          	li	s8,48
    80001778:	00040713          	mv	a4,s0
    8000177c:	de1ff06f          	j	8000155c <vprintfmt+0x8c>
    80001780:	fd06899b          	addiw	s3,a3,-48
    80001784:	00174683          	lbu	a3,1(a4)
    80001788:	00040713          	mv	a4,s0
    8000178c:	fd06809b          	addiw	ra,a3,-48
    80001790:	00068e1b          	sext.w	t3,a3
    80001794:	fa1560e3          	bltu	a0,ra,80001734 <vprintfmt+0x264>
    80001798:	00170713          	addi	a4,a4,1
    8000179c:	0029941b          	slliw	s0,s3,0x2
    800017a0:	00074683          	lbu	a3,0(a4)
    800017a4:	0134033b          	addw	t1,s0,s3
    800017a8:	0013139b          	slliw	t2,t1,0x1
    800017ac:	01c3883b          	addw	a6,t2,t3
    800017b0:	fd06889b          	addiw	a7,a3,-48
    800017b4:	fd08099b          	addiw	s3,a6,-48
    800017b8:	00068e1b          	sext.w	t3,a3
    800017bc:	fd157ee3          	bleu	a7,a0,80001798 <vprintfmt+0x2c8>
    800017c0:	f75ff06f          	j	80001734 <vprintfmt+0x264>
    800017c4:	000b2503          	lw	a0,0(s6)
    800017c8:	00048593          	mv	a1,s1
    800017cc:	008b0b13          	addi	s6,s6,8
    800017d0:	000900e7          	jalr	s2
    800017d4:	d5dff06f          	j	80001530 <vprintfmt+0x60>
    800017d8:	00100093          	li	ra,1
    800017dc:	008b0c93          	addi	s9,s6,8
    800017e0:	0ab0de63          	ble	a1,ra,8000189c <vprintfmt+0x3cc>
    800017e4:	000b3983          	ld	s3,0(s6)
    800017e8:	1009d263          	bgez	s3,800018ec <vprintfmt+0x41c>
    800017ec:	00048593          	mv	a1,s1
    800017f0:	02d00513          	li	a0,45
    800017f4:	000900e7          	jalr	s2
    800017f8:	000c8b13          	mv	s6,s9
    800017fc:	41300333          	neg	t1,s3
    80001800:	00a00f93          	li	t6,10
    80001804:	dc9ff06f          	j	800015cc <vprintfmt+0xfc>
    80001808:	00174683          	lbu	a3,1(a4)
    8000180c:	0015859b          	addiw	a1,a1,1
    80001810:	00040713          	mv	a4,s0
    80001814:	d49ff06f          	j	8000155c <vprintfmt+0x8c>
    80001818:	00048593          	mv	a1,s1
    8000181c:	02500513          	li	a0,37
    80001820:	000900e7          	jalr	s2
    80001824:	000c8413          	mv	s0,s9
    80001828:	d09ff06f          	j	80001530 <vprintfmt+0x60>
    8000182c:	00100513          	li	a0,1
    80001830:	00000993          	li	s3,0
    80001834:	00100c93          	li	s9,1
    80001838:	dd7548e3          	blt	a0,s7,80001608 <vprintfmt+0x138>
    8000183c:	df5ff06f          	j	80001630 <vprintfmt+0x160>
    80001840:	419f08b3          	sub	a7,t5,s9
    80001844:	411e0bbb          	subw	s7,t3,a7
    80001848:	09704463          	bgtz	s7,800018d0 <vprintfmt+0x400>
    8000184c:	000cc503          	lbu	a0,0(s9)
    80001850:	ce0500e3          	beqz	a0,80001530 <vprintfmt+0x60>
    80001854:	fff00c13          	li	s8,-1
    80001858:	0209dc63          	bgez	s3,80001890 <vprintfmt+0x3c0>
    8000185c:	00048593          	mv	a1,s1
    80001860:	001c8c93          	addi	s9,s9,1
    80001864:	000900e7          	jalr	s2
    80001868:	000cc503          	lbu	a0,0(s9)
    8000186c:	fffb8b9b          	addiw	s7,s7,-1
    80001870:	fe0514e3          	bnez	a0,80001858 <vprintfmt+0x388>
    80001874:	cb705ee3          	blez	s7,80001530 <vprintfmt+0x60>
    80001878:	fffb8b9b          	addiw	s7,s7,-1
    8000187c:	00048593          	mv	a1,s1
    80001880:	02000513          	li	a0,32
    80001884:	000900e7          	jalr	s2
    80001888:	fe0b98e3          	bnez	s7,80001878 <vprintfmt+0x3a8>
    8000188c:	ca5ff06f          	j	80001530 <vprintfmt+0x60>
    80001890:	fff9899b          	addiw	s3,s3,-1
    80001894:	fd8994e3          	bne	s3,s8,8000185c <vprintfmt+0x38c>
    80001898:	fddff06f          	j	80001874 <vprintfmt+0x3a4>
    8000189c:	f40594e3          	bnez	a1,800017e4 <vprintfmt+0x314>
    800018a0:	000b2983          	lw	s3,0(s6)
    800018a4:	f45ff06f          	j	800017e8 <vprintfmt+0x318>
    800018a8:	000cc503          	lbu	a0,0(s9)
    800018ac:	fc0506e3          	beqz	a0,80001878 <vprintfmt+0x3a8>
    800018b0:	fff00c13          	li	s8,-1
    800018b4:	fa5ff06f          	j	80001858 <vprintfmt+0x388>
    800018b8:	05705263          	blez	s7,800018fc <vprintfmt+0x42c>
    800018bc:	02d00593          	li	a1,45
    800018c0:	02bc0e63          	beq	s8,a1,800018fc <vprintfmt+0x42c>
    800018c4:	00001c97          	auipc	s9,0x1
    800018c8:	8b4c8c93          	addi	s9,s9,-1868 # 80002178 <main+0x264>
    800018cc:	de5ff06f          	j	800016b0 <vprintfmt+0x1e0>
    800018d0:	000c0c1b          	sext.w	s8,s8
    800018d4:	fffb8b9b          	addiw	s7,s7,-1
    800018d8:	00048593          	mv	a1,s1
    800018dc:	000c0513          	mv	a0,s8
    800018e0:	000900e7          	jalr	s2
    800018e4:	fe0b98e3          	bnez	s7,800018d4 <vprintfmt+0x404>
    800018e8:	f65ff06f          	j	8000184c <vprintfmt+0x37c>
    800018ec:	00098313          	mv	t1,s3
    800018f0:	000c8b13          	mv	s6,s9
    800018f4:	00a00f93          	li	t6,10
    800018f8:	cd5ff06f          	j	800015cc <vprintfmt+0xfc>
    800018fc:	00001c97          	auipc	s9,0x1
    80001900:	87cc8c93          	addi	s9,s9,-1924 # 80002178 <main+0x264>
    80001904:	02800513          	li	a0,40
    80001908:	fff00c13          	li	s8,-1
    8000190c:	f4dff06f          	j	80001858 <vprintfmt+0x388>
    80001910:	419e8bb3          	sub	s7,t4,s9
    80001914:	417e0bbb          	subw	s7,t3,s7
    80001918:	fb704ce3          	bgtz	s7,800018d0 <vprintfmt+0x400>
    8000191c:	f31ff06f          	j	8000184c <vprintfmt+0x37c>

0000000080001920 <sprintf_putch.2912>:
    80001920:	0005b783          	ld	a5,0(a1)
    80001924:	00a78023          	sb	a0,0(a5)
    80001928:	0005b283          	ld	t0,0(a1)
    8000192c:	00128313          	addi	t1,t0,1
    80001930:	0065b023          	sd	t1,0(a1)
    80001934:	00008067          	ret

0000000080001938 <putchar>:
    80001938:	04022803          	lw	a6,64(tp) # 40 <buflen.2798>
    8000193c:	00020293          	mv	t0,tp
    80001940:	f8010113          	addi	sp,sp,-128
    80001944:	0018069b          	addiw	a3,a6,1
    80001948:	01028333          	add	t1,t0,a6
    8000194c:	03f10893          	addi	a7,sp,63
    80001950:	04d22023          	sw	a3,64(tp) # 40 <buflen.2798>
    80001954:	00a30023          	sb	a0,0(t1)
    80001958:	00a00393          	li	t2,10
    8000195c:	fc08fe13          	andi	t3,a7,-64
    80001960:	00750c63          	beq	a0,t2,80001978 <putchar+0x40>
    80001964:	04000513          	li	a0,64
    80001968:	00a68863          	beq	a3,a0,80001978 <putchar+0x40>
    8000196c:	00000513          	li	a0,0
    80001970:	08010113          	addi	sp,sp,128
    80001974:	00008067          	ret
    80001978:	04000e93          	li	t4,64
    8000197c:	01de3023          	sd	t4,0(t3)
    80001980:	00100f93          	li	t6,1
    80001984:	01fe3423          	sd	t6,8(t3)
    80001988:	00020713          	mv	a4,tp
    8000198c:	00ee3823          	sd	a4,16(t3)
    80001990:	00de3c23          	sd	a3,24(t3)
    80001994:	0ff0000f          	fence
    80001998:	fffff797          	auipc	a5,0xfffff
    8000199c:	67c7b423          	sd	t3,1640(a5) # 80001000 <tohost>
    800019a0:	fffff817          	auipc	a6,0xfffff
    800019a4:	6a080813          	addi	a6,a6,1696 # 80001040 <fromhost>
    800019a8:	00083603          	ld	a2,0(a6)
    800019ac:	fe060ee3          	beqz	a2,800019a8 <putchar+0x70>
    800019b0:	fffff797          	auipc	a5,0xfffff
    800019b4:	6807b823          	sd	zero,1680(a5) # 80001040 <fromhost>
    800019b8:	0ff0000f          	fence
    800019bc:	04022023          	sw	zero,64(tp) # 40 <buflen.2798>
    800019c0:	000e3783          	ld	a5,0(t3)
    800019c4:	00000513          	li	a0,0
    800019c8:	08010113          	addi	sp,sp,128
    800019cc:	00008067          	ret

00000000800019d0 <setStats>:
    800019d0:	b00027f3          	csrr	a5,mcycle
    800019d4:	00005717          	auipc	a4,0x5
    800019d8:	62c70713          	addi	a4,a4,1580 # 80007000 <counters>
    800019dc:	00051e63          	bnez	a0,800019f8 <setStats+0x28>
    800019e0:	00073683          	ld	a3,0(a4)
    800019e4:	00000617          	auipc	a2,0x0
    800019e8:	79c60613          	addi	a2,a2,1948 # 80002180 <main+0x26c>
    800019ec:	00005597          	auipc	a1,0x5
    800019f0:	62c5b223          	sd	a2,1572(a1) # 80007010 <counter_names>
    800019f4:	40d787b3          	sub	a5,a5,a3
    800019f8:	00005697          	auipc	a3,0x5
    800019fc:	60f6b423          	sd	a5,1544(a3) # 80007000 <counters>
    80001a00:	b02023f3          	csrr	t2,minstret
    80001a04:	00051e63          	bnez	a0,80001a20 <setStats+0x50>
    80001a08:	00873283          	ld	t0,8(a4)
    80001a0c:	00000317          	auipc	t1,0x0
    80001a10:	77c30313          	addi	t1,t1,1916 # 80002188 <main+0x274>
    80001a14:	00005617          	auipc	a2,0x5
    80001a18:	60663223          	sd	t1,1540(a2) # 80007018 <counter_names+0x8>
    80001a1c:	405383b3          	sub	t2,t2,t0
    80001a20:	00005717          	auipc	a4,0x5
    80001a24:	5e773423          	sd	t2,1512(a4) # 80007008 <counters+0x8>
    80001a28:	00008067          	ret

0000000080001a2c <tohost_exit>:
    80001a2c:	00151793          	slli	a5,a0,0x1
    80001a30:	0017e293          	ori	t0,a5,1
    80001a34:	fffff717          	auipc	a4,0xfffff
    80001a38:	5c573623          	sd	t0,1484(a4) # 80001000 <tohost>
    80001a3c:	0000006f          	j	80001a3c <tohost_exit+0x10>
    80001a40:	000017b7          	lui	a5,0x1
    80001a44:	a7378293          	addi	t0,a5,-1421 # a73 <_tbss_end+0xa2f>
    80001a48:	fffff717          	auipc	a4,0xfffff
    80001a4c:	5a573c23          	sd	t0,1464(a4) # 80001000 <tohost>
    80001a50:	0000006f          	j	80001a50 <tohost_exit+0x24>

0000000080001a54 <exit>:
    80001a54:	ff010113          	addi	sp,sp,-16
    80001a58:	00113423          	sd	ra,8(sp)
    80001a5c:	fd1ff0ef          	jal	ra,80001a2c <tohost_exit>

0000000080001a60 <abort>:
    80001a60:	10d00793          	li	a5,269
    80001a64:	fffff717          	auipc	a4,0xfffff
    80001a68:	58f73e23          	sd	a5,1436(a4) # 80001000 <tohost>
    80001a6c:	0000006f          	j	80001a6c <abort+0xc>

0000000080001a70 <printstr>:
    80001a70:	00054783          	lbu	a5,0(a0)
    80001a74:	f8010113          	addi	sp,sp,-128
    80001a78:	03f10713          	addi	a4,sp,63
    80001a7c:	00050693          	mv	a3,a0
    80001a80:	fc077293          	andi	t0,a4,-64
    80001a84:	06078263          	beqz	a5,80001ae8 <printstr+0x78>
    80001a88:	00050613          	mv	a2,a0
    80001a8c:	00150513          	addi	a0,a0,1
    80001a90:	00054303          	lbu	t1,0(a0)
    80001a94:	fe031ce3          	bnez	t1,80001a8c <printstr+0x1c>
    80001a98:	40c50533          	sub	a0,a0,a2
    80001a9c:	04000393          	li	t2,64
    80001aa0:	0072b023          	sd	t2,0(t0)
    80001aa4:	00100593          	li	a1,1
    80001aa8:	00b2b423          	sd	a1,8(t0)
    80001aac:	00d2b823          	sd	a3,16(t0)
    80001ab0:	00a2bc23          	sd	a0,24(t0)
    80001ab4:	0ff0000f          	fence
    80001ab8:	fffff797          	auipc	a5,0xfffff
    80001abc:	5457b423          	sd	t0,1352(a5) # 80001000 <tohost>
    80001ac0:	fffff817          	auipc	a6,0xfffff
    80001ac4:	58080813          	addi	a6,a6,1408 # 80001040 <fromhost>
    80001ac8:	00083883          	ld	a7,0(a6)
    80001acc:	fe088ee3          	beqz	a7,80001ac8 <printstr+0x58>
    80001ad0:	fffff797          	auipc	a5,0xfffff
    80001ad4:	5607b823          	sd	zero,1392(a5) # 80001040 <fromhost>
    80001ad8:	0ff0000f          	fence
    80001adc:	0002b783          	ld	a5,0(t0)
    80001ae0:	08010113          	addi	sp,sp,128
    80001ae4:	00008067          	ret
    80001ae8:	00000513          	li	a0,0
    80001aec:	fb1ff06f          	j	80001a9c <printstr+0x2c>

0000000080001af0 <thread_entry>:
    80001af0:	00050463          	beqz	a0,80001af8 <thread_entry+0x8>
    80001af4:	0000006f          	j	80001af4 <thread_entry+0x4>
    80001af8:	00008067          	ret

0000000080001afc <printhex>:
    80001afc:	fd010113          	addi	sp,sp,-48
    80001b00:	02113423          	sd	ra,40(sp)
    80001b04:	01710713          	addi	a4,sp,23
    80001b08:	00710813          	addi	a6,sp,7
    80001b0c:	00900593          	li	a1,9
    80001b10:	00f57793          	andi	a5,a0,15
    80001b14:	03000613          	li	a2,48
    80001b18:	0ff7f693          	andi	a3,a5,255
    80001b1c:	00f5f463          	bleu	a5,a1,80001b24 <printhex+0x28>
    80001b20:	05700613          	li	a2,87
    80001b24:	00c680bb          	addw	ra,a3,a2
    80001b28:	00170023          	sb	ra,0(a4)
    80001b2c:	fff70713          	addi	a4,a4,-1
    80001b30:	00455513          	srli	a0,a0,0x4
    80001b34:	fce81ee3          	bne	a6,a4,80001b10 <printhex+0x14>
    80001b38:	00810513          	addi	a0,sp,8
    80001b3c:	00010c23          	sb	zero,24(sp)
    80001b40:	f31ff0ef          	jal	ra,80001a70 <printstr>
    80001b44:	02813083          	ld	ra,40(sp)
    80001b48:	03010113          	addi	sp,sp,48
    80001b4c:	00008067          	ret

0000000080001b50 <printf>:
    80001b50:	fa010113          	addi	sp,sp,-96
    80001b54:	02810313          	addi	t1,sp,40
    80001b58:	02b13423          	sd	a1,40(sp)
    80001b5c:	02c13823          	sd	a2,48(sp)
    80001b60:	02d13c23          	sd	a3,56(sp)
    80001b64:	00050613          	mv	a2,a0
    80001b68:	00030693          	mv	a3,t1
    80001b6c:	00000517          	auipc	a0,0x0
    80001b70:	dcc50513          	addi	a0,a0,-564 # 80001938 <putchar>
    80001b74:	00000593          	li	a1,0
    80001b78:	00113c23          	sd	ra,24(sp)
    80001b7c:	04e13023          	sd	a4,64(sp)
    80001b80:	04f13423          	sd	a5,72(sp)
    80001b84:	05013823          	sd	a6,80(sp)
    80001b88:	05113c23          	sd	a7,88(sp)
    80001b8c:	00613423          	sd	t1,8(sp)
    80001b90:	00000097          	auipc	ra,0x0
    80001b94:	940080e7          	jalr	-1728(ra) # 800014d0 <vprintfmt>
    80001b98:	01813083          	ld	ra,24(sp)
    80001b9c:	00000513          	li	a0,0
    80001ba0:	06010113          	addi	sp,sp,96
    80001ba4:	00008067          	ret

0000000080001ba8 <sprintf>:
    80001ba8:	fa010113          	addi	sp,sp,-96
    80001bac:	03010313          	addi	t1,sp,48
    80001bb0:	02813023          	sd	s0,32(sp)
    80001bb4:	00a13423          	sd	a0,8(sp)
    80001bb8:	02c13823          	sd	a2,48(sp)
    80001bbc:	02d13c23          	sd	a3,56(sp)
    80001bc0:	00050413          	mv	s0,a0
    80001bc4:	00058613          	mv	a2,a1
    80001bc8:	00000517          	auipc	a0,0x0
    80001bcc:	d5850513          	addi	a0,a0,-680 # 80001920 <sprintf_putch.2912>
    80001bd0:	00810593          	addi	a1,sp,8
    80001bd4:	00030693          	mv	a3,t1
    80001bd8:	02113423          	sd	ra,40(sp)
    80001bdc:	04f13423          	sd	a5,72(sp)
    80001be0:	04e13023          	sd	a4,64(sp)
    80001be4:	05013823          	sd	a6,80(sp)
    80001be8:	05113c23          	sd	a7,88(sp)
    80001bec:	00613c23          	sd	t1,24(sp)
    80001bf0:	8e1ff0ef          	jal	ra,800014d0 <vprintfmt>
    80001bf4:	00813783          	ld	a5,8(sp)
    80001bf8:	00078023          	sb	zero,0(a5)
    80001bfc:	00813503          	ld	a0,8(sp)
    80001c00:	02813083          	ld	ra,40(sp)
    80001c04:	4085053b          	subw	a0,a0,s0
    80001c08:	02013403          	ld	s0,32(sp)
    80001c0c:	06010113          	addi	sp,sp,96
    80001c10:	00008067          	ret

0000000080001c14 <memcpy>:
    80001c14:	00c5e7b3          	or	a5,a1,a2
    80001c18:	00f562b3          	or	t0,a0,a5
    80001c1c:	0072f313          	andi	t1,t0,7
    80001c20:	00c506b3          	add	a3,a0,a2
    80001c24:	02030463          	beqz	t1,80001c4c <memcpy+0x38>
    80001c28:	04d57263          	bleu	a3,a0,80001c6c <memcpy+0x58>
    80001c2c:	00c58633          	add	a2,a1,a2
    80001c30:	00050393          	mv	t2,a0
    80001c34:	00158593          	addi	a1,a1,1
    80001c38:	fff5c703          	lbu	a4,-1(a1)
    80001c3c:	00138393          	addi	t2,t2,1
    80001c40:	fee38fa3          	sb	a4,-1(t2)
    80001c44:	feb618e3          	bne	a2,a1,80001c34 <memcpy+0x20>
    80001c48:	00008067          	ret
    80001c4c:	fed57ee3          	bleu	a3,a0,80001c48 <memcpy+0x34>
    80001c50:	00050893          	mv	a7,a0
    80001c54:	00858593          	addi	a1,a1,8
    80001c58:	ff85b803          	ld	a6,-8(a1)
    80001c5c:	00888893          	addi	a7,a7,8
    80001c60:	ff08bc23          	sd	a6,-8(a7)
    80001c64:	fed8e8e3          	bltu	a7,a3,80001c54 <memcpy+0x40>
    80001c68:	00008067          	ret
    80001c6c:	00008067          	ret

0000000080001c70 <memset>:
    80001c70:	00c567b3          	or	a5,a0,a2
    80001c74:	0077f293          	andi	t0,a5,7
    80001c78:	00c50633          	add	a2,a0,a2
    80001c7c:	02028063          	beqz	t0,80001c9c <memset+0x2c>
    80001c80:	04c57863          	bleu	a2,a0,80001cd0 <memset+0x60>
    80001c84:	0ff5f593          	andi	a1,a1,255
    80001c88:	00050313          	mv	t1,a0
    80001c8c:	00130313          	addi	t1,t1,1
    80001c90:	feb30fa3          	sb	a1,-1(t1)
    80001c94:	fe661ce3          	bne	a2,t1,80001c8c <memset+0x1c>
    80001c98:	00008067          	ret
    80001c9c:	0ff5f393          	andi	t2,a1,255
    80001ca0:	00839693          	slli	a3,t2,0x8
    80001ca4:	00d3e733          	or	a4,t2,a3
    80001ca8:	01071813          	slli	a6,a4,0x10
    80001cac:	010768b3          	or	a7,a4,a6
    80001cb0:	02089e13          	slli	t3,a7,0x20
    80001cb4:	01c8eeb3          	or	t4,a7,t3
    80001cb8:	fec570e3          	bleu	a2,a0,80001c98 <memset+0x28>
    80001cbc:	00050f13          	mv	t5,a0
    80001cc0:	008f0f13          	addi	t5,t5,8
    80001cc4:	ffdf3c23          	sd	t4,-8(t5)
    80001cc8:	fecf6ce3          	bltu	t5,a2,80001cc0 <memset+0x50>
    80001ccc:	00008067          	ret
    80001cd0:	00008067          	ret

0000000080001cd4 <_init>:
    80001cd4:	f4010113          	addi	sp,sp,-192
    80001cd8:	0a813823          	sd	s0,176(sp)
    80001cdc:	0a913423          	sd	s1,168(sp)
    80001ce0:	0a113c23          	sd	ra,184(sp)
    80001ce4:	00020493          	mv	s1,tp
    80001ce8:	00020313          	mv	t1,tp
    80001cec:	40648433          	sub	s0,s1,t1
    80001cf0:	00040613          	mv	a2,s0
    80001cf4:	09313c23          	sd	s3,152(sp)
    80001cf8:	09413823          	sd	s4,144(sp)
    80001cfc:	00050993          	mv	s3,a0
    80001d00:	00058a13          	mv	s4,a1
    80001d04:	00020513          	mv	a0,tp
    80001d08:	00005597          	auipc	a1,0x5
    80001d0c:	33858593          	addi	a1,a1,824 # 80007040 <_end>
    80001d10:	0b213023          	sd	s2,160(sp)
    80001d14:	09513423          	sd	s5,136(sp)
    80001d18:	00020a93          	mv	s5,tp
    80001d1c:	ef9ff0ef          	jal	ra,80001c14 <memcpy>
    80001d20:	04420513          	addi	a0,tp,68 # 44 <_tbss_end>
    80001d24:	40950633          	sub	a2,a0,s1
    80001d28:	00000593          	li	a1,0
    80001d2c:	008a8533          	add	a0,s5,s0
    80001d30:	00000097          	auipc	ra,0x0
    80001d34:	f40080e7          	jalr	-192(ra) # 80001c70 <memset>
    80001d38:	00098513          	mv	a0,s3
    80001d3c:	000a0593          	mv	a1,s4
    80001d40:	db1ff0ef          	jal	ra,80001af0 <thread_entry>
    80001d44:	00000593          	li	a1,0
    80001d48:	00000513          	li	a0,0
    80001d4c:	00000097          	auipc	ra,0x0
    80001d50:	1c8080e7          	jalr	456(ra) # 80001f14 <main>
    80001d54:	00005417          	auipc	s0,0x5
    80001d58:	2ac40413          	addi	s0,s0,684 # 80007000 <counters>
    80001d5c:	00043683          	ld	a3,0(s0)
    80001d60:	03f10913          	addi	s2,sp,63
    80001d64:	fc097913          	andi	s2,s2,-64
    80001d68:	00050993          	mv	s3,a0
    80001d6c:	04069663          	bnez	a3,80001db8 <_init+0xe4>
    80001d70:	00843683          	ld	a3,8(s0)
    80001d74:	00069863          	bnez	a3,80001d84 <_init+0xb0>
    80001d78:	00098513          	mv	a0,s3
    80001d7c:	00000097          	auipc	ra,0x0
    80001d80:	cb0080e7          	jalr	-848(ra) # 80001a2c <tohost_exit>
    80001d84:	00090493          	mv	s1,s2
    80001d88:	01843603          	ld	a2,24(s0)
    80001d8c:	00048513          	mv	a0,s1
    80001d90:	00000597          	auipc	a1,0x0
    80001d94:	42058593          	addi	a1,a1,1056 # 800021b0 <main+0x29c>
    80001d98:	00000097          	auipc	ra,0x0
    80001d9c:	e10080e7          	jalr	-496(ra) # 80001ba8 <sprintf>
    80001da0:	00a484b3          	add	s1,s1,a0
    80001da4:	fc990ae3          	beq	s2,s1,80001d78 <_init+0xa4>
    80001da8:	00090513          	mv	a0,s2
    80001dac:	00000097          	auipc	ra,0x0
    80001db0:	cc4080e7          	jalr	-828(ra) # 80001a70 <printstr>
    80001db4:	fc5ff06f          	j	80001d78 <_init+0xa4>
    80001db8:	01043603          	ld	a2,16(s0)
    80001dbc:	00000597          	auipc	a1,0x0
    80001dc0:	3f458593          	addi	a1,a1,1012 # 800021b0 <main+0x29c>
    80001dc4:	00090513          	mv	a0,s2
    80001dc8:	00000097          	auipc	ra,0x0
    80001dcc:	de0080e7          	jalr	-544(ra) # 80001ba8 <sprintf>
    80001dd0:	00843683          	ld	a3,8(s0)
    80001dd4:	00a904b3          	add	s1,s2,a0
    80001dd8:	fc0686e3          	beqz	a3,80001da4 <_init+0xd0>
    80001ddc:	fadff06f          	j	80001d88 <_init+0xb4>

0000000080001de0 <strlen>:
    80001de0:	00054783          	lbu	a5,0(a0)
    80001de4:	00050713          	mv	a4,a0
    80001de8:	00078c63          	beqz	a5,80001e00 <strlen+0x20>
    80001dec:	00150513          	addi	a0,a0,1
    80001df0:	00054283          	lbu	t0,0(a0)
    80001df4:	fe029ce3          	bnez	t0,80001dec <strlen+0xc>
    80001df8:	40e50533          	sub	a0,a0,a4
    80001dfc:	00008067          	ret
    80001e00:	00000513          	li	a0,0
    80001e04:	00008067          	ret

0000000080001e08 <strnlen>:
    80001e08:	00050713          	mv	a4,a0
    80001e0c:	02058663          	beqz	a1,80001e38 <strnlen+0x30>
    80001e10:	00054783          	lbu	a5,0(a0)
    80001e14:	02078263          	beqz	a5,80001e38 <strnlen+0x30>
    80001e18:	00b505b3          	add	a1,a0,a1
    80001e1c:	00c0006f          	j	80001e28 <strnlen+0x20>
    80001e20:	00054283          	lbu	t0,0(a0)
    80001e24:	00028663          	beqz	t0,80001e30 <strnlen+0x28>
    80001e28:	00150513          	addi	a0,a0,1
    80001e2c:	feb51ae3          	bne	a0,a1,80001e20 <strnlen+0x18>
    80001e30:	40e50533          	sub	a0,a0,a4
    80001e34:	00008067          	ret
    80001e38:	00000513          	li	a0,0
    80001e3c:	00008067          	ret

0000000080001e40 <strcmp>:
    80001e40:	00150513          	addi	a0,a0,1
    80001e44:	fff54783          	lbu	a5,-1(a0)
    80001e48:	00158593          	addi	a1,a1,1
    80001e4c:	fff5c703          	lbu	a4,-1(a1)
    80001e50:	00078a63          	beqz	a5,80001e64 <strcmp+0x24>
    80001e54:	fee786e3          	beq	a5,a4,80001e40 <strcmp>
    80001e58:	0007851b          	sext.w	a0,a5
    80001e5c:	40e5053b          	subw	a0,a0,a4
    80001e60:	00008067          	ret
    80001e64:	00000513          	li	a0,0
    80001e68:	ff5ff06f          	j	80001e5c <strcmp+0x1c>

0000000080001e6c <strcpy>:
    80001e6c:	00050793          	mv	a5,a0
    80001e70:	00158593          	addi	a1,a1,1
    80001e74:	fff5c703          	lbu	a4,-1(a1)
    80001e78:	00178793          	addi	a5,a5,1
    80001e7c:	fee78fa3          	sb	a4,-1(a5)
    80001e80:	fe0718e3          	bnez	a4,80001e70 <strcpy+0x4>
    80001e84:	00008067          	ret

0000000080001e88 <atol>:
    80001e88:	00054783          	lbu	a5,0(a0)
    80001e8c:	02000713          	li	a4,32
    80001e90:	00e79863          	bne	a5,a4,80001ea0 <atol+0x18>
    80001e94:	00150513          	addi	a0,a0,1
    80001e98:	00054783          	lbu	a5,0(a0)
    80001e9c:	fee78ce3          	beq	a5,a4,80001e94 <atol+0xc>
    80001ea0:	fd57829b          	addiw	t0,a5,-43
    80001ea4:	0fd2f313          	andi	t1,t0,253
    80001ea8:	04030263          	beqz	t1,80001eec <atol+0x64>
    80001eac:	00054683          	lbu	a3,0(a0)
    80001eb0:	04068c63          	beqz	a3,80001f08 <atol+0x80>
    80001eb4:	00050813          	mv	a6,a0
    80001eb8:	00000613          	li	a2,0
    80001ebc:	00000513          	li	a0,0
    80001ec0:	00180813          	addi	a6,a6,1
    80001ec4:	fd06859b          	addiw	a1,a3,-48
    80001ec8:	00251893          	slli	a7,a0,0x2
    80001ecc:	00084683          	lbu	a3,0(a6)
    80001ed0:	00a88533          	add	a0,a7,a0
    80001ed4:	00151e13          	slli	t3,a0,0x1
    80001ed8:	01c58533          	add	a0,a1,t3
    80001edc:	fe0692e3          	bnez	a3,80001ec0 <atol+0x38>
    80001ee0:	00060463          	beqz	a2,80001ee8 <atol+0x60>
    80001ee4:	40a00533          	neg	a0,a0
    80001ee8:	00008067          	ret
    80001eec:	00154683          	lbu	a3,1(a0)
    80001ef0:	fd378393          	addi	t2,a5,-45
    80001ef4:	0013b613          	seqz	a2,t2
    80001ef8:	00150813          	addi	a6,a0,1
    80001efc:	fc0690e3          	bnez	a3,80001ebc <atol+0x34>
    80001f00:	00000513          	li	a0,0
    80001f04:	fddff06f          	j	80001ee0 <atol+0x58>
    80001f08:	00000513          	li	a0,0
    80001f0c:	00008067          	ret
    80001f10:	0000                	unimp
	...

Disassembly of section .text.startup:

0000000080001f14 <main>:
    80001f14:	00002597          	auipc	a1,0x2
    80001f18:	0ec58593          	addi	a1,a1,236 # 80004000 <l2pt>
    80001f1c:	00001517          	auipc	a0,0x1
    80001f20:	0e450513          	addi	a0,a0,228 # 80003000 <l3pt>
    80001f24:	00004797          	auipc	a5,0x4
    80001f28:	0dc78793          	addi	a5,a5,220 # 80006000 <scratch>
    80001f2c:	fe010113          	addi	sp,sp,-32
    80001f30:	00c5d693          	srli	a3,a1,0xc
    80001f34:	00c55713          	srli	a4,a0,0xc
    80001f38:	00c7d293          	srli	t0,a5,0xc
    80001f3c:	00113c23          	sd	ra,24(sp)
    80001f40:	00003817          	auipc	a6,0x3
    80001f44:	0c080813          	addi	a6,a6,192 # 80005000 <l1pt>
    80001f48:	00a69093          	slli	ra,a3,0xa
    80001f4c:	00a29313          	slli	t1,t0,0xa
    80001f50:	00a71393          	slli	t2,a4,0xa
    80001f54:	fff00e13          	li	t3,-1
    80001f58:	00813823          	sd	s0,16(sp)
    80001f5c:	00913423          	sd	s1,8(sp)
    80001f60:	0010e413          	ori	s0,ra,1
    80001f64:	0c736493          	ori	s1,t1,199
    80001f68:	0013e893          	ori	a7,t2,1
    80001f6c:	00c85613          	srli	a2,a6,0xc
    80001f70:	03fe1e93          	slli	t4,t3,0x3f
    80001f74:	00883023          	sd	s0,0(a6)
    80001f78:	00953423          	sd	s1,8(a0)
    80001f7c:	0115b023          	sd	a7,0(a1)
    80001f80:	01d66f33          	or	t5,a2,t4
    80001f84:	180f1073          	csrw	sptbr,t5
    80001f88:	00190fb7          	lui	t6,0x190
    80001f8c:	3a0f9073          	csrw	pmpcfg0,t6
    80001f90:	fff00593          	li	a1,-1
    80001f94:	3b259073          	csrw	pmpaddr2,a1
    80001f98:	00001537          	lui	a0,0x1
    80001f9c:	fffff097          	auipc	ra,0xfffff
    80001fa0:	44c080e7          	jalr	1100(ra) # 800013e8 <exhaustive_test.constprop.0>
    80001fa4:	000024b7          	lui	s1,0x2
    80001fa8:	fe048513          	addi	a0,s1,-32 # 1fe0 <_tbss_end+0x1f9c>
    80001fac:	fffff097          	auipc	ra,0xfffff
    80001fb0:	43c080e7          	jalr	1084(ra) # 800013e8 <exhaustive_test.constprop.0>
    80001fb4:	000015b7          	lui	a1,0x1
    80001fb8:	00001537          	lui	a0,0x1
    80001fbc:	88cff0ef          	jal	ra,80001048 <test_range>
    80001fc0:	00001437          	lui	s0,0x1
    80001fc4:	80040593          	addi	a1,s0,-2048 # 800 <_tbss_end+0x7bc>
    80001fc8:	00001537          	lui	a0,0x1
    80001fcc:	87cff0ef          	jal	ra,80001048 <test_range>
    80001fd0:	80048513          	addi	a0,s1,-2048
    80001fd4:	80040593          	addi	a1,s0,-2048
    80001fd8:	870ff0ef          	jal	ra,80001048 <test_range>
    80001fdc:	01813083          	ld	ra,24(sp)
    80001fe0:	01013403          	ld	s0,16(sp)
    80001fe4:	00813483          	ld	s1,8(sp)
    80001fe8:	00000513          	li	a0,0
    80001fec:	02010113          	addi	sp,sp,32
    80001ff0:	00008067          	ret
    80001ff4:	0000                	unimp
    80001ff6:	0000                	unimp
    80001ff8:	ff010113          	addi	sp,sp,-16
    80001ffc:	00000517          	auipc	a0,0x0
    80002000:	19c50513          	addi	a0,a0,412 # 80002198 <main+0x284>
    80002004:	00113423          	sd	ra,8(sp)
    80002008:	a69ff0ef          	jal	ra,80001a70 <printstr>
    8000200c:	00813083          	ld	ra,8(sp)
    80002010:	fff00513          	li	a0,-1
    80002014:	01010113          	addi	sp,sp,16
    80002018:	00008067          	ret
	...
